
rtarget: formato do arquivo elf64-x86-64


Desmontagem da seção .init:

0000000000400d80 <_init>:
  400d80:	48 83 ec 08          	sub    $0x8,%rsp
  400d84:	48 8b 05 5d 42 20 00 	mov    0x20425d(%rip),%rax        # 604fe8 <_DYNAMIC+0x198>
  400d8b:	48 85 c0             	test   %rax,%rax
  400d8e:	74 05                	je     400d95 <_init+0x15>
  400d90:	e8 3b 02 00 00       	callq  400fd0 <socket@plt+0x10>
  400d95:	e8 76 03 00 00       	callq  401110 <frame_dummy>
  400d9a:	e8 31 22 00 00       	callq  402fd0 <__do_global_ctors_aux>
  400d9f:	48 83 c4 08          	add    $0x8,%rsp
  400da3:	c3                   	retq   

Desmontagem da seção .plt:

0000000000400db0 <strcasecmp@plt-0x10>:
  400db0:	ff 35 52 42 20 00    	pushq  0x204252(%rip)        # 605008 <_GLOBAL_OFFSET_TABLE_+0x8>
  400db6:	ff 25 54 42 20 00    	jmpq   *0x204254(%rip)        # 605010 <_GLOBAL_OFFSET_TABLE_+0x10>
  400dbc:	0f 1f 40 00          	nopl   0x0(%rax)

0000000000400dc0 <strcasecmp@plt>:
  400dc0:	ff 25 52 42 20 00    	jmpq   *0x204252(%rip)        # 605018 <_GLOBAL_OFFSET_TABLE_+0x18>
  400dc6:	68 00 00 00 00       	pushq  $0x0
  400dcb:	e9 e0 ff ff ff       	jmpq   400db0 <_init+0x30>

0000000000400dd0 <__errno_location@plt>:
  400dd0:	ff 25 4a 42 20 00    	jmpq   *0x20424a(%rip)        # 605020 <_GLOBAL_OFFSET_TABLE_+0x20>
  400dd6:	68 01 00 00 00       	pushq  $0x1
  400ddb:	e9 d0 ff ff ff       	jmpq   400db0 <_init+0x30>

0000000000400de0 <srandom@plt>:
  400de0:	ff 25 42 42 20 00    	jmpq   *0x204242(%rip)        # 605028 <_GLOBAL_OFFSET_TABLE_+0x28>
  400de6:	68 02 00 00 00       	pushq  $0x2
  400deb:	e9 c0 ff ff ff       	jmpq   400db0 <_init+0x30>

0000000000400df0 <strncmp@plt>:
  400df0:	ff 25 3a 42 20 00    	jmpq   *0x20423a(%rip)        # 605030 <_GLOBAL_OFFSET_TABLE_+0x30>
  400df6:	68 03 00 00 00       	pushq  $0x3
  400dfb:	e9 b0 ff ff ff       	jmpq   400db0 <_init+0x30>

0000000000400e00 <strcpy@plt>:
  400e00:	ff 25 32 42 20 00    	jmpq   *0x204232(%rip)        # 605038 <_GLOBAL_OFFSET_TABLE_+0x38>
  400e06:	68 04 00 00 00       	pushq  $0x4
  400e0b:	e9 a0 ff ff ff       	jmpq   400db0 <_init+0x30>

0000000000400e10 <puts@plt>:
  400e10:	ff 25 2a 42 20 00    	jmpq   *0x20422a(%rip)        # 605040 <_GLOBAL_OFFSET_TABLE_+0x40>
  400e16:	68 05 00 00 00       	pushq  $0x5
  400e1b:	e9 90 ff ff ff       	jmpq   400db0 <_init+0x30>

0000000000400e20 <write@plt>:
  400e20:	ff 25 22 42 20 00    	jmpq   *0x204222(%rip)        # 605048 <_GLOBAL_OFFSET_TABLE_+0x48>
  400e26:	68 06 00 00 00       	pushq  $0x6
  400e2b:	e9 80 ff ff ff       	jmpq   400db0 <_init+0x30>

0000000000400e30 <mmap@plt>:
  400e30:	ff 25 1a 42 20 00    	jmpq   *0x20421a(%rip)        # 605050 <_GLOBAL_OFFSET_TABLE_+0x50>
  400e36:	68 07 00 00 00       	pushq  $0x7
  400e3b:	e9 70 ff ff ff       	jmpq   400db0 <_init+0x30>

0000000000400e40 <printf@plt>:
  400e40:	ff 25 12 42 20 00    	jmpq   *0x204212(%rip)        # 605058 <_GLOBAL_OFFSET_TABLE_+0x58>
  400e46:	68 08 00 00 00       	pushq  $0x8
  400e4b:	e9 60 ff ff ff       	jmpq   400db0 <_init+0x30>

0000000000400e50 <memset@plt>:
  400e50:	ff 25 0a 42 20 00    	jmpq   *0x20420a(%rip)        # 605060 <_GLOBAL_OFFSET_TABLE_+0x60>
  400e56:	68 09 00 00 00       	pushq  $0x9
  400e5b:	e9 50 ff ff ff       	jmpq   400db0 <_init+0x30>

0000000000400e60 <alarm@plt>:
  400e60:	ff 25 02 42 20 00    	jmpq   *0x204202(%rip)        # 605068 <_GLOBAL_OFFSET_TABLE_+0x68>
  400e66:	68 0a 00 00 00       	pushq  $0xa
  400e6b:	e9 40 ff ff ff       	jmpq   400db0 <_init+0x30>

0000000000400e70 <close@plt>:
  400e70:	ff 25 fa 41 20 00    	jmpq   *0x2041fa(%rip)        # 605070 <_GLOBAL_OFFSET_TABLE_+0x70>
  400e76:	68 0b 00 00 00       	pushq  $0xb
  400e7b:	e9 30 ff ff ff       	jmpq   400db0 <_init+0x30>

0000000000400e80 <read@plt>:
  400e80:	ff 25 f2 41 20 00    	jmpq   *0x2041f2(%rip)        # 605078 <_GLOBAL_OFFSET_TABLE_+0x78>
  400e86:	68 0c 00 00 00       	pushq  $0xc
  400e8b:	e9 20 ff ff ff       	jmpq   400db0 <_init+0x30>

0000000000400e90 <__libc_start_main@plt>:
  400e90:	ff 25 ea 41 20 00    	jmpq   *0x2041ea(%rip)        # 605080 <_GLOBAL_OFFSET_TABLE_+0x80>
  400e96:	68 0d 00 00 00       	pushq  $0xd
  400e9b:	e9 10 ff ff ff       	jmpq   400db0 <_init+0x30>

0000000000400ea0 <signal@plt>:
  400ea0:	ff 25 e2 41 20 00    	jmpq   *0x2041e2(%rip)        # 605088 <_GLOBAL_OFFSET_TABLE_+0x88>
  400ea6:	68 0e 00 00 00       	pushq  $0xe
  400eab:	e9 00 ff ff ff       	jmpq   400db0 <_init+0x30>

0000000000400eb0 <gethostbyname@plt>:
  400eb0:	ff 25 da 41 20 00    	jmpq   *0x2041da(%rip)        # 605090 <_GLOBAL_OFFSET_TABLE_+0x90>
  400eb6:	68 0f 00 00 00       	pushq  $0xf
  400ebb:	e9 f0 fe ff ff       	jmpq   400db0 <_init+0x30>

0000000000400ec0 <fprintf@plt>:
  400ec0:	ff 25 d2 41 20 00    	jmpq   *0x2041d2(%rip)        # 605098 <_GLOBAL_OFFSET_TABLE_+0x98>
  400ec6:	68 10 00 00 00       	pushq  $0x10
  400ecb:	e9 e0 fe ff ff       	jmpq   400db0 <_init+0x30>

0000000000400ed0 <strtol@plt>:
  400ed0:	ff 25 ca 41 20 00    	jmpq   *0x2041ca(%rip)        # 6050a0 <_GLOBAL_OFFSET_TABLE_+0xa0>
  400ed6:	68 11 00 00 00       	pushq  $0x11
  400edb:	e9 d0 fe ff ff       	jmpq   400db0 <_init+0x30>

0000000000400ee0 <memcpy@plt>:
  400ee0:	ff 25 c2 41 20 00    	jmpq   *0x2041c2(%rip)        # 6050a8 <_GLOBAL_OFFSET_TABLE_+0xa8>
  400ee6:	68 12 00 00 00       	pushq  $0x12
  400eeb:	e9 c0 fe ff ff       	jmpq   400db0 <_init+0x30>

0000000000400ef0 <time@plt>:
  400ef0:	ff 25 ba 41 20 00    	jmpq   *0x2041ba(%rip)        # 6050b0 <_GLOBAL_OFFSET_TABLE_+0xb0>
  400ef6:	68 13 00 00 00       	pushq  $0x13
  400efb:	e9 b0 fe ff ff       	jmpq   400db0 <_init+0x30>

0000000000400f00 <random@plt>:
  400f00:	ff 25 b2 41 20 00    	jmpq   *0x2041b2(%rip)        # 6050b8 <_GLOBAL_OFFSET_TABLE_+0xb8>
  400f06:	68 14 00 00 00       	pushq  $0x14
  400f0b:	e9 a0 fe ff ff       	jmpq   400db0 <_init+0x30>

0000000000400f10 <_IO_getc@plt>:
  400f10:	ff 25 aa 41 20 00    	jmpq   *0x2041aa(%rip)        # 6050c0 <_GLOBAL_OFFSET_TABLE_+0xc0>
  400f16:	68 15 00 00 00       	pushq  $0x15
  400f1b:	e9 90 fe ff ff       	jmpq   400db0 <_init+0x30>

0000000000400f20 <__isoc99_sscanf@plt>:
  400f20:	ff 25 a2 41 20 00    	jmpq   *0x2041a2(%rip)        # 6050c8 <_GLOBAL_OFFSET_TABLE_+0xc8>
  400f26:	68 16 00 00 00       	pushq  $0x16
  400f2b:	e9 80 fe ff ff       	jmpq   400db0 <_init+0x30>

0000000000400f30 <munmap@plt>:
  400f30:	ff 25 9a 41 20 00    	jmpq   *0x20419a(%rip)        # 6050d0 <_GLOBAL_OFFSET_TABLE_+0xd0>
  400f36:	68 17 00 00 00       	pushq  $0x17
  400f3b:	e9 70 fe ff ff       	jmpq   400db0 <_init+0x30>

0000000000400f40 <bcopy@plt>:
  400f40:	ff 25 92 41 20 00    	jmpq   *0x204192(%rip)        # 6050d8 <_GLOBAL_OFFSET_TABLE_+0xd8>
  400f46:	68 18 00 00 00       	pushq  $0x18
  400f4b:	e9 60 fe ff ff       	jmpq   400db0 <_init+0x30>

0000000000400f50 <fopen@plt>:
  400f50:	ff 25 8a 41 20 00    	jmpq   *0x20418a(%rip)        # 6050e0 <_GLOBAL_OFFSET_TABLE_+0xe0>
  400f56:	68 19 00 00 00       	pushq  $0x19
  400f5b:	e9 50 fe ff ff       	jmpq   400db0 <_init+0x30>

0000000000400f60 <getopt@plt>:
  400f60:	ff 25 82 41 20 00    	jmpq   *0x204182(%rip)        # 6050e8 <_GLOBAL_OFFSET_TABLE_+0xe8>
  400f66:	68 1a 00 00 00       	pushq  $0x1a
  400f6b:	e9 40 fe ff ff       	jmpq   400db0 <_init+0x30>

0000000000400f70 <strtoul@plt>:
  400f70:	ff 25 7a 41 20 00    	jmpq   *0x20417a(%rip)        # 6050f0 <_GLOBAL_OFFSET_TABLE_+0xf0>
  400f76:	68 1b 00 00 00       	pushq  $0x1b
  400f7b:	e9 30 fe ff ff       	jmpq   400db0 <_init+0x30>

0000000000400f80 <gethostname@plt>:
  400f80:	ff 25 72 41 20 00    	jmpq   *0x204172(%rip)        # 6050f8 <_GLOBAL_OFFSET_TABLE_+0xf8>
  400f86:	68 1c 00 00 00       	pushq  $0x1c
  400f8b:	e9 20 fe ff ff       	jmpq   400db0 <_init+0x30>

0000000000400f90 <sprintf@plt>:
  400f90:	ff 25 6a 41 20 00    	jmpq   *0x20416a(%rip)        # 605100 <_GLOBAL_OFFSET_TABLE_+0x100>
  400f96:	68 1d 00 00 00       	pushq  $0x1d
  400f9b:	e9 10 fe ff ff       	jmpq   400db0 <_init+0x30>

0000000000400fa0 <exit@plt>:
  400fa0:	ff 25 62 41 20 00    	jmpq   *0x204162(%rip)        # 605108 <_GLOBAL_OFFSET_TABLE_+0x108>
  400fa6:	68 1e 00 00 00       	pushq  $0x1e
  400fab:	e9 00 fe ff ff       	jmpq   400db0 <_init+0x30>

0000000000400fb0 <connect@plt>:
  400fb0:	ff 25 5a 41 20 00    	jmpq   *0x20415a(%rip)        # 605110 <_GLOBAL_OFFSET_TABLE_+0x110>
  400fb6:	68 1f 00 00 00       	pushq  $0x1f
  400fbb:	e9 f0 fd ff ff       	jmpq   400db0 <_init+0x30>

0000000000400fc0 <socket@plt>:
  400fc0:	ff 25 52 41 20 00    	jmpq   *0x204152(%rip)        # 605118 <_GLOBAL_OFFSET_TABLE_+0x118>
  400fc6:	68 20 00 00 00       	pushq  $0x20
  400fcb:	e9 e0 fd ff ff       	jmpq   400db0 <_init+0x30>

Desmontagem da seção .plt.got:

0000000000400fd0 <.plt.got>:
  400fd0:	ff 25 12 40 20 00    	jmpq   *0x204012(%rip)        # 604fe8 <_DYNAMIC+0x198>
  400fd6:	66 90                	xchg   %ax,%ax

Desmontagem da seção .text:

0000000000400fe0 <_start>:
  400fe0:	31 ed                	xor    %ebp,%ebp
  400fe2:	49 89 d1             	mov    %rdx,%r9
  400fe5:	5e                   	pop    %rsi
  400fe6:	48 89 e2             	mov    %rsp,%rdx
  400fe9:	48 83 e4 f0          	and    $0xfffffffffffffff0,%rsp
  400fed:	50                   	push   %rax
  400fee:	54                   	push   %rsp
  400fef:	49 c7 c0 c0 2f 40 00 	mov    $0x402fc0,%r8
  400ff6:	48 c7 c1 50 2f 40 00 	mov    $0x402f50,%rcx
  400ffd:	48 c7 c7 10 13 40 00 	mov    $0x401310,%rdi
  401004:	e8 87 fe ff ff       	callq  400e90 <__libc_start_main@plt>
  401009:	f4                   	hlt    
  40100a:	66 0f 1f 44 00 00    	nopw   0x0(%rax,%rax,1)

0000000000401010 <deregister_tm_clones>:
  401010:	48 8d 3d 79 44 20 00 	lea    0x204479(%rip),%rdi        # 605490 <__TMC_END__>
  401017:	48 8d 05 79 44 20 00 	lea    0x204479(%rip),%rax        # 605497 <__TMC_END__+0x7>
  40101e:	55                   	push   %rbp
  40101f:	48 29 f8             	sub    %rdi,%rax
  401022:	48 89 e5             	mov    %rsp,%rbp
  401025:	48 83 f8 0e          	cmp    $0xe,%rax
  401029:	76 15                	jbe    401040 <deregister_tm_clones+0x30>
  40102b:	48 8b 05 ae 3f 20 00 	mov    0x203fae(%rip),%rax        # 604fe0 <_DYNAMIC+0x190>
  401032:	48 85 c0             	test   %rax,%rax
  401035:	74 09                	je     401040 <deregister_tm_clones+0x30>
  401037:	5d                   	pop    %rbp
  401038:	ff e0                	jmpq   *%rax
  40103a:	66 0f 1f 44 00 00    	nopw   0x0(%rax,%rax,1)
  401040:	5d                   	pop    %rbp
  401041:	c3                   	retq   
  401042:	0f 1f 40 00          	nopl   0x0(%rax)
  401046:	66 2e 0f 1f 84 00 00 	nopw   %cs:0x0(%rax,%rax,1)
  40104d:	00 00 00 

0000000000401050 <register_tm_clones>:
  401050:	48 8d 3d 39 44 20 00 	lea    0x204439(%rip),%rdi        # 605490 <__TMC_END__>
  401057:	48 8d 35 32 44 20 00 	lea    0x204432(%rip),%rsi        # 605490 <__TMC_END__>
  40105e:	55                   	push   %rbp
  40105f:	48 29 fe             	sub    %rdi,%rsi
  401062:	48 89 e5             	mov    %rsp,%rbp
  401065:	48 c1 fe 03          	sar    $0x3,%rsi
  401069:	48 89 f0             	mov    %rsi,%rax
  40106c:	48 c1 e8 3f          	shr    $0x3f,%rax
  401070:	48 01 c6             	add    %rax,%rsi
  401073:	48 d1 fe             	sar    %rsi
  401076:	74 18                	je     401090 <register_tm_clones+0x40>
  401078:	48 8b 05 79 3f 20 00 	mov    0x203f79(%rip),%rax        # 604ff8 <_DYNAMIC+0x1a8>
  40107f:	48 85 c0             	test   %rax,%rax
  401082:	74 0c                	je     401090 <register_tm_clones+0x40>
  401084:	5d                   	pop    %rbp
  401085:	ff e0                	jmpq   *%rax
  401087:	66 0f 1f 84 00 00 00 	nopw   0x0(%rax,%rax,1)
  40108e:	00 00 
  401090:	5d                   	pop    %rbp
  401091:	c3                   	retq   
  401092:	0f 1f 40 00          	nopl   0x0(%rax)
  401096:	66 2e 0f 1f 84 00 00 	nopw   %cs:0x0(%rax,%rax,1)
  40109d:	00 00 00 

00000000004010a0 <__do_global_dtors_aux>:
  4010a0:	80 3d 21 44 20 00 00 	cmpb   $0x0,0x204421(%rip)        # 6054c8 <completed.6948>
  4010a7:	75 62                	jne    40110b <__do_global_dtors_aux+0x6b>
  4010a9:	55                   	push   %rbp
  4010aa:	48 8d 15 87 3d 20 00 	lea    0x203d87(%rip),%rdx        # 604e38 <__DTOR_LIST__>
  4010b1:	48 8b 05 18 44 20 00 	mov    0x204418(%rip),%rax        # 6054d0 <dtor_idx.6950>
  4010b8:	48 89 e5             	mov    %rsp,%rbp
  4010bb:	41 54                	push   %r12
  4010bd:	53                   	push   %rbx
  4010be:	48 8d 1d 7b 3d 20 00 	lea    0x203d7b(%rip),%rbx        # 604e40 <__DTOR_END__>
  4010c5:	4c 8d 25 6c 3d 20 00 	lea    0x203d6c(%rip),%r12        # 604e38 <__DTOR_LIST__>
  4010cc:	48 29 d3             	sub    %rdx,%rbx
  4010cf:	48 c1 fb 03          	sar    $0x3,%rbx
  4010d3:	48 83 eb 01          	sub    $0x1,%rbx
  4010d7:	48 39 d8             	cmp    %rbx,%rax
  4010da:	73 1f                	jae    4010fb <__do_global_dtors_aux+0x5b>
  4010dc:	0f 1f 40 00          	nopl   0x0(%rax)
  4010e0:	48 83 c0 01          	add    $0x1,%rax
  4010e4:	48 89 05 e5 43 20 00 	mov    %rax,0x2043e5(%rip)        # 6054d0 <dtor_idx.6950>
  4010eb:	41 ff 14 c4          	callq  *(%r12,%rax,8)
  4010ef:	48 8b 05 da 43 20 00 	mov    0x2043da(%rip),%rax        # 6054d0 <dtor_idx.6950>
  4010f6:	48 39 d8             	cmp    %rbx,%rax
  4010f9:	72 e5                	jb     4010e0 <__do_global_dtors_aux+0x40>
  4010fb:	e8 10 ff ff ff       	callq  401010 <deregister_tm_clones>
  401100:	5b                   	pop    %rbx
  401101:	41 5c                	pop    %r12
  401103:	5d                   	pop    %rbp
  401104:	c6 05 bd 43 20 00 01 	movb   $0x1,0x2043bd(%rip)        # 6054c8 <completed.6948>
  40110b:	f3 c3                	repz retq 
  40110d:	0f 1f 00             	nopl   (%rax)

0000000000401110 <frame_dummy>:
  401110:	48 8d 3d 31 3d 20 00 	lea    0x203d31(%rip),%rdi        # 604e48 <__JCR_END__>
  401117:	48 83 3f 00          	cmpq   $0x0,(%rdi)
  40111b:	75 0b                	jne    401128 <frame_dummy+0x18>
  40111d:	e9 2e ff ff ff       	jmpq   401050 <register_tm_clones>
  401122:	66 0f 1f 44 00 00    	nopw   0x0(%rax,%rax,1)
  401128:	48 8b 05 c1 3e 20 00 	mov    0x203ec1(%rip),%rax        # 604ff0 <_DYNAMIC+0x1a0>
  40112f:	48 85 c0             	test   %rax,%rax
  401132:	74 e9                	je     40111d <frame_dummy+0xd>
  401134:	55                   	push   %rbp
  401135:	48 89 e5             	mov    %rsp,%rbp
  401138:	ff d0                	callq  *%rax
  40113a:	5d                   	pop    %rbp
  40113b:	e9 10 ff ff ff       	jmpq   401050 <register_tm_clones>

0000000000401140 <usage>:
  401140:	48 83 ec 08          	sub    $0x8,%rsp
  401144:	48 89 fe             	mov    %rdi,%rsi
  401147:	83 3d ba 43 20 00 00 	cmpl   $0x0,0x2043ba(%rip)        # 605508 <is_checker>
  40114e:	74 39                	je     401189 <usage+0x49>
  401150:	bf 28 30 40 00       	mov    $0x403028,%edi
  401155:	b8 00 00 00 00       	mov    $0x0,%eax
  40115a:	e8 e1 fc ff ff       	callq  400e40 <printf@plt>
  40115f:	bf 60 30 40 00       	mov    $0x403060,%edi
  401164:	e8 a7 fc ff ff       	callq  400e10 <puts@plt>
  401169:	bf d8 31 40 00       	mov    $0x4031d8,%edi
  40116e:	e8 9d fc ff ff       	callq  400e10 <puts@plt>
  401173:	bf 88 30 40 00       	mov    $0x403088,%edi
  401178:	e8 93 fc ff ff       	callq  400e10 <puts@plt>
  40117d:	bf f2 31 40 00       	mov    $0x4031f2,%edi
  401182:	e8 89 fc ff ff       	callq  400e10 <puts@plt>
  401187:	eb 2d                	jmp    4011b6 <usage+0x76>
  401189:	bf 0e 32 40 00       	mov    $0x40320e,%edi
  40118e:	b8 00 00 00 00       	mov    $0x0,%eax
  401193:	e8 a8 fc ff ff       	callq  400e40 <printf@plt>
  401198:	bf b0 30 40 00       	mov    $0x4030b0,%edi
  40119d:	e8 6e fc ff ff       	callq  400e10 <puts@plt>
  4011a2:	bf d8 30 40 00       	mov    $0x4030d8,%edi
  4011a7:	e8 64 fc ff ff       	callq  400e10 <puts@plt>
  4011ac:	bf 2c 32 40 00       	mov    $0x40322c,%edi
  4011b1:	e8 5a fc ff ff       	callq  400e10 <puts@plt>
  4011b6:	bf 00 00 00 00       	mov    $0x0,%edi
  4011bb:	e8 e0 fd ff ff       	callq  400fa0 <exit@plt>

00000000004011c0 <initialize_target>:
  4011c0:	55                   	push   %rbp
  4011c1:	53                   	push   %rbx
  4011c2:	48 81 ec 08 21 00 00 	sub    $0x2108,%rsp
  4011c9:	89 f5                	mov    %esi,%ebp
  4011cb:	89 3d 27 43 20 00    	mov    %edi,0x204327(%rip)        # 6054f8 <check_level>
  4011d1:	8b 3d 71 3f 20 00    	mov    0x203f71(%rip),%edi        # 605148 <target_id>
  4011d7:	e8 48 1d 00 00       	callq  402f24 <gencookie>
  4011dc:	89 05 22 43 20 00    	mov    %eax,0x204322(%rip)        # 605504 <cookie>
  4011e2:	89 c7                	mov    %eax,%edi
  4011e4:	e8 3b 1d 00 00       	callq  402f24 <gencookie>
  4011e9:	89 05 11 43 20 00    	mov    %eax,0x204311(%rip)        # 605500 <authkey>
  4011ef:	8b 05 53 3f 20 00    	mov    0x203f53(%rip),%eax        # 605148 <target_id>
  4011f5:	8d 78 01             	lea    0x1(%rax),%edi
  4011f8:	e8 e3 fb ff ff       	callq  400de0 <srandom@plt>
  4011fd:	e8 fe fc ff ff       	callq  400f00 <random@plt>
  401202:	89 c7                	mov    %eax,%edi
  401204:	e8 ca 02 00 00       	callq  4014d3 <scramble>
  401209:	89 c3                	mov    %eax,%ebx
  40120b:	85 ed                	test   %ebp,%ebp
  40120d:	74 18                	je     401227 <initialize_target+0x67>
  40120f:	bf 00 00 00 00       	mov    $0x0,%edi
  401214:	e8 d7 fc ff ff       	callq  400ef0 <time@plt>
  401219:	89 c7                	mov    %eax,%edi
  40121b:	e8 c0 fb ff ff       	callq  400de0 <srandom@plt>
  401220:	e8 db fc ff ff       	callq  400f00 <random@plt>
  401225:	eb 05                	jmp    40122c <initialize_target+0x6c>
  401227:	b8 00 00 00 00       	mov    $0x0,%eax
  40122c:	01 c3                	add    %eax,%ebx
  40122e:	0f b7 db             	movzwl %bx,%ebx
  401231:	8d 04 dd 00 01 00 00 	lea    0x100(,%rbx,8),%eax
  401238:	89 c0                	mov    %eax,%eax
  40123a:	48 89 05 3f 42 20 00 	mov    %rax,0x20423f(%rip)        # 605480 <buf_offset>
  401241:	c6 05 e0 4e 20 00 72 	movb   $0x72,0x204ee0(%rip)        # 606128 <target_prefix>
  401248:	83 3d 39 42 20 00 00 	cmpl   $0x0,0x204239(%rip)        # 605488 <notify>
  40124f:	0f 84 b1 00 00 00    	je     401306 <initialize_target+0x146>
  401255:	83 3d ac 42 20 00 00 	cmpl   $0x0,0x2042ac(%rip)        # 605508 <is_checker>
  40125c:	0f 85 a4 00 00 00    	jne    401306 <initialize_target+0x146>
  401262:	be 00 01 00 00       	mov    $0x100,%esi
  401267:	48 89 e7             	mov    %rsp,%rdi
  40126a:	e8 11 fd ff ff       	callq  400f80 <gethostname@plt>
  40126f:	85 c0                	test   %eax,%eax
  401271:	74 25                	je     401298 <initialize_target+0xd8>
  401273:	bf 08 31 40 00       	mov    $0x403108,%edi
  401278:	e8 93 fb ff ff       	callq  400e10 <puts@plt>
  40127d:	bf 08 00 00 00       	mov    $0x8,%edi
  401282:	e8 19 fd ff ff       	callq  400fa0 <exit@plt>
  401287:	48 89 e6             	mov    %rsp,%rsi
  40128a:	e8 31 fb ff ff       	callq  400dc0 <strcasecmp@plt>
  40128f:	85 c0                	test   %eax,%eax
  401291:	74 21                	je     4012b4 <initialize_target+0xf4>
  401293:	83 c3 01             	add    $0x1,%ebx
  401296:	eb 05                	jmp    40129d <initialize_target+0xdd>
  401298:	bb 00 00 00 00       	mov    $0x0,%ebx
  40129d:	48 63 c3             	movslq %ebx,%rax
  4012a0:	48 8b 3c c5 60 51 60 	mov    0x605160(,%rax,8),%rdi
  4012a7:	00 
  4012a8:	48 85 ff             	test   %rdi,%rdi
  4012ab:	75 da                	jne    401287 <initialize_target+0xc7>
  4012ad:	b8 00 00 00 00       	mov    $0x0,%eax
  4012b2:	eb 05                	jmp    4012b9 <initialize_target+0xf9>
  4012b4:	b8 01 00 00 00       	mov    $0x1,%eax
  4012b9:	85 c0                	test   %eax,%eax
  4012bb:	75 17                	jne    4012d4 <initialize_target+0x114>
  4012bd:	48 89 e6             	mov    %rsp,%rsi
  4012c0:	bf 40 31 40 00       	mov    $0x403140,%edi
  4012c5:	e8 76 fb ff ff       	callq  400e40 <printf@plt>
  4012ca:	bf 08 00 00 00       	mov    $0x8,%edi
  4012cf:	e8 cc fc ff ff       	callq  400fa0 <exit@plt>
  4012d4:	48 8d bc 24 00 01 00 	lea    0x100(%rsp),%rdi
  4012db:	00 
  4012dc:	e8 dc 19 00 00       	callq  402cbd <init_driver>
  4012e1:	85 c0                	test   %eax,%eax
  4012e3:	79 21                	jns    401306 <initialize_target+0x146>
  4012e5:	48 8d b4 24 00 01 00 	lea    0x100(%rsp),%rsi
  4012ec:	00 
  4012ed:	bf 80 31 40 00       	mov    $0x403180,%edi
  4012f2:	b8 00 00 00 00       	mov    $0x0,%eax
  4012f7:	e8 44 fb ff ff       	callq  400e40 <printf@plt>
  4012fc:	bf 08 00 00 00       	mov    $0x8,%edi
  401301:	e8 9a fc ff ff       	callq  400fa0 <exit@plt>
  401306:	48 81 c4 08 21 00 00 	add    $0x2108,%rsp
  40130d:	5b                   	pop    %rbx
  40130e:	5d                   	pop    %rbp
  40130f:	c3                   	retq   

0000000000401310 <main>:
  401310:	41 56                	push   %r14
  401312:	41 55                	push   %r13
  401314:	41 54                	push   %r12
  401316:	55                   	push   %rbp
  401317:	53                   	push   %rbx
  401318:	41 89 fc             	mov    %edi,%r12d
  40131b:	48 89 f3             	mov    %rsi,%rbx
  40131e:	be ba 20 40 00       	mov    $0x4020ba,%esi
  401323:	bf 0b 00 00 00       	mov    $0xb,%edi
  401328:	e8 73 fb ff ff       	callq  400ea0 <signal@plt>
  40132d:	be 6c 20 40 00       	mov    $0x40206c,%esi
  401332:	bf 07 00 00 00       	mov    $0x7,%edi
  401337:	e8 64 fb ff ff       	callq  400ea0 <signal@plt>
  40133c:	be 08 21 40 00       	mov    $0x402108,%esi
  401341:	bf 04 00 00 00       	mov    $0x4,%edi
  401346:	e8 55 fb ff ff       	callq  400ea0 <signal@plt>
  40134b:	83 3d b6 41 20 00 00 	cmpl   $0x0,0x2041b6(%rip)        # 605508 <is_checker>
  401352:	74 20                	je     401374 <main+0x64>
  401354:	be 56 21 40 00       	mov    $0x402156,%esi
  401359:	bf 0e 00 00 00       	mov    $0xe,%edi
  40135e:	e8 3d fb ff ff       	callq  400ea0 <signal@plt>
  401363:	bf 05 00 00 00       	mov    $0x5,%edi
  401368:	e8 f3 fa ff ff       	callq  400e60 <alarm@plt>
  40136d:	bd 4a 32 40 00       	mov    $0x40324a,%ebp
  401372:	eb 05                	jmp    401379 <main+0x69>
  401374:	bd 45 32 40 00       	mov    $0x403245,%ebp
  401379:	48 8b 05 20 41 20 00 	mov    0x204120(%rip),%rax        # 6054a0 <stdin@@GLIBC_2.2.5>
  401380:	48 89 05 69 41 20 00 	mov    %rax,0x204169(%rip)        # 6054f0 <infile>
  401387:	41 bd 00 00 00 00    	mov    $0x0,%r13d
  40138d:	41 be 00 00 00 00    	mov    $0x0,%r14d
  401393:	e9 b9 00 00 00       	jmpq   401451 <main+0x141>
  401398:	83 e8 61             	sub    $0x61,%eax
  40139b:	3c 10                	cmp    $0x10,%al
  40139d:	0f 87 93 00 00 00    	ja     401436 <main+0x126>
  4013a3:	0f b6 c0             	movzbl %al,%eax
  4013a6:	ff 24 c5 90 32 40 00 	jmpq   *0x403290(,%rax,8)
  4013ad:	48 8b 3b             	mov    (%rbx),%rdi
  4013b0:	e8 8b fd ff ff       	callq  401140 <usage>
  4013b5:	be 0d 35 40 00       	mov    $0x40350d,%esi
  4013ba:	48 8b 3d e7 40 20 00 	mov    0x2040e7(%rip),%rdi        # 6054a8 <optarg@@GLIBC_2.2.5>
  4013c1:	e8 8a fb ff ff       	callq  400f50 <fopen@plt>
  4013c6:	48 89 05 23 41 20 00 	mov    %rax,0x204123(%rip)        # 6054f0 <infile>
  4013cd:	48 85 c0             	test   %rax,%rax
  4013d0:	75 7f                	jne    401451 <main+0x141>
  4013d2:	48 8b 15 cf 40 20 00 	mov    0x2040cf(%rip),%rdx        # 6054a8 <optarg@@GLIBC_2.2.5>
  4013d9:	be 52 32 40 00       	mov    $0x403252,%esi
  4013de:	48 8b 3d db 40 20 00 	mov    0x2040db(%rip),%rdi        # 6054c0 <stderr@@GLIBC_2.2.5>
  4013e5:	e8 d6 fa ff ff       	callq  400ec0 <fprintf@plt>
  4013ea:	b8 01 00 00 00       	mov    $0x1,%eax
  4013ef:	e9 d6 00 00 00       	jmpq   4014ca <main+0x1ba>
  4013f4:	ba 10 00 00 00       	mov    $0x10,%edx
  4013f9:	be 00 00 00 00       	mov    $0x0,%esi
  4013fe:	48 8b 3d a3 40 20 00 	mov    0x2040a3(%rip),%rdi        # 6054a8 <optarg@@GLIBC_2.2.5>
  401405:	e8 66 fb ff ff       	callq  400f70 <strtoul@plt>
  40140a:	41 89 c6             	mov    %eax,%r14d
  40140d:	eb 42                	jmp    401451 <main+0x141>
  40140f:	ba 0a 00 00 00       	mov    $0xa,%edx
  401414:	be 00 00 00 00       	mov    $0x0,%esi
  401419:	48 8b 3d 88 40 20 00 	mov    0x204088(%rip),%rdi        # 6054a8 <optarg@@GLIBC_2.2.5>
  401420:	e8 ab fa ff ff       	callq  400ed0 <strtol@plt>
  401425:	41 89 c5             	mov    %eax,%r13d
  401428:	eb 27                	jmp    401451 <main+0x141>
  40142a:	c7 05 54 40 20 00 00 	movl   $0x0,0x204054(%rip)        # 605488 <notify>
  401431:	00 00 00 
  401434:	eb 1b                	jmp    401451 <main+0x141>
  401436:	40 0f be f6          	movsbl %sil,%esi
  40143a:	bf 6f 32 40 00       	mov    $0x40326f,%edi
  40143f:	b8 00 00 00 00       	mov    $0x0,%eax
  401444:	e8 f7 f9 ff ff       	callq  400e40 <printf@plt>
  401449:	48 8b 3b             	mov    (%rbx),%rdi
  40144c:	e8 ef fc ff ff       	callq  401140 <usage>
  401451:	48 89 ea             	mov    %rbp,%rdx
  401454:	48 89 de             	mov    %rbx,%rsi
  401457:	44 89 e7             	mov    %r12d,%edi
  40145a:	e8 01 fb ff ff       	callq  400f60 <getopt@plt>
  40145f:	89 c6                	mov    %eax,%esi
  401461:	3c ff                	cmp    $0xff,%al
  401463:	0f 85 2f ff ff ff    	jne    401398 <main+0x88>
  401469:	be 01 00 00 00       	mov    $0x1,%esi
  40146e:	44 89 ef             	mov    %r13d,%edi
  401471:	e8 4a fd ff ff       	callq  4011c0 <initialize_target>
  401476:	83 3d 8b 40 20 00 00 	cmpl   $0x0,0x20408b(%rip)        # 605508 <is_checker>
  40147d:	74 25                	je     4014a4 <main+0x194>
  40147f:	44 3b 35 7a 40 20 00 	cmp    0x20407a(%rip),%r14d        # 605500 <authkey>
  401486:	74 1c                	je     4014a4 <main+0x194>
  401488:	44 89 f6             	mov    %r14d,%esi
  40148b:	bf a8 31 40 00       	mov    $0x4031a8,%edi
  401490:	b8 00 00 00 00       	mov    $0x0,%eax
  401495:	e8 a6 f9 ff ff       	callq  400e40 <printf@plt>
  40149a:	b8 00 00 00 00       	mov    $0x0,%eax
  40149f:	e8 d7 08 00 00       	callq  401d7b <check_fail>
  4014a4:	8b 35 5a 40 20 00    	mov    0x20405a(%rip),%esi        # 605504 <cookie>
  4014aa:	bf 82 32 40 00       	mov    $0x403282,%edi
  4014af:	b8 00 00 00 00       	mov    $0x0,%eax
  4014b4:	e8 87 f9 ff ff       	callq  400e40 <printf@plt>
  4014b9:	48 8b 3d c0 3f 20 00 	mov    0x203fc0(%rip),%rdi        # 605480 <buf_offset>
  4014c0:	e8 df 0c 00 00       	callq  4021a4 <launch>
  4014c5:	b8 00 00 00 00       	mov    $0x0,%eax
  4014ca:	5b                   	pop    %rbx
  4014cb:	5d                   	pop    %rbp
  4014cc:	41 5c                	pop    %r12
  4014ce:	41 5d                	pop    %r13
  4014d0:	41 5e                	pop    %r14
  4014d2:	c3                   	retq   

00000000004014d3 <scramble>:
  4014d3:	b8 00 00 00 00       	mov    $0x0,%eax
  4014d8:	eb 11                	jmp    4014eb <scramble+0x18>
  4014da:	69 d0 c4 4e 00 00    	imul   $0x4ec4,%eax,%edx
  4014e0:	01 fa                	add    %edi,%edx
  4014e2:	89 c1                	mov    %eax,%ecx
  4014e4:	89 54 8c d0          	mov    %edx,-0x30(%rsp,%rcx,4)
  4014e8:	83 c0 01             	add    $0x1,%eax
  4014eb:	83 f8 09             	cmp    $0x9,%eax
  4014ee:	76 ea                	jbe    4014da <scramble+0x7>
  4014f0:	8b 44 24 f0          	mov    -0x10(%rsp),%eax
  4014f4:	69 c0 6e 98 00 00    	imul   $0x986e,%eax,%eax
  4014fa:	89 44 24 f0          	mov    %eax,-0x10(%rsp)
  4014fe:	8b 44 24 f4          	mov    -0xc(%rsp),%eax
  401502:	69 c0 30 2f 00 00    	imul   $0x2f30,%eax,%eax
  401508:	89 44 24 f4          	mov    %eax,-0xc(%rsp)
  40150c:	8b 44 24 e4          	mov    -0x1c(%rsp),%eax
  401510:	69 c0 2e 83 00 00    	imul   $0x832e,%eax,%eax
  401516:	89 44 24 e4          	mov    %eax,-0x1c(%rsp)
  40151a:	8b 44 24 d4          	mov    -0x2c(%rsp),%eax
  40151e:	69 c0 75 4c 00 00    	imul   $0x4c75,%eax,%eax
  401524:	89 44 24 d4          	mov    %eax,-0x2c(%rsp)
  401528:	8b 44 24 d0          	mov    -0x30(%rsp),%eax
  40152c:	69 c0 56 20 00 00    	imul   $0x2056,%eax,%eax
  401532:	89 44 24 d0          	mov    %eax,-0x30(%rsp)
  401536:	8b 44 24 e8          	mov    -0x18(%rsp),%eax
  40153a:	69 c0 68 fa 00 00    	imul   $0xfa68,%eax,%eax
  401540:	89 44 24 e8          	mov    %eax,-0x18(%rsp)
  401544:	8b 44 24 e0          	mov    -0x20(%rsp),%eax
  401548:	69 c0 72 24 00 00    	imul   $0x2472,%eax,%eax
  40154e:	89 44 24 e0          	mov    %eax,-0x20(%rsp)
  401552:	8b 44 24 d4          	mov    -0x2c(%rsp),%eax
  401556:	69 c0 87 ca 00 00    	imul   $0xca87,%eax,%eax
  40155c:	89 44 24 d4          	mov    %eax,-0x2c(%rsp)
  401560:	8b 44 24 ec          	mov    -0x14(%rsp),%eax
  401564:	69 c0 d8 c4 00 00    	imul   $0xc4d8,%eax,%eax
  40156a:	89 44 24 ec          	mov    %eax,-0x14(%rsp)
  40156e:	8b 44 24 d8          	mov    -0x28(%rsp),%eax
  401572:	69 c0 e7 ac 00 00    	imul   $0xace7,%eax,%eax
  401578:	89 44 24 d8          	mov    %eax,-0x28(%rsp)
  40157c:	8b 44 24 e8          	mov    -0x18(%rsp),%eax
  401580:	69 c0 12 74 00 00    	imul   $0x7412,%eax,%eax
  401586:	89 44 24 e8          	mov    %eax,-0x18(%rsp)
  40158a:	8b 44 24 d0          	mov    -0x30(%rsp),%eax
  40158e:	69 c0 36 9d 00 00    	imul   $0x9d36,%eax,%eax
  401594:	89 44 24 d0          	mov    %eax,-0x30(%rsp)
  401598:	8b 44 24 ec          	mov    -0x14(%rsp),%eax
  40159c:	69 c0 bf 28 00 00    	imul   $0x28bf,%eax,%eax
  4015a2:	89 44 24 ec          	mov    %eax,-0x14(%rsp)
  4015a6:	8b 44 24 e8          	mov    -0x18(%rsp),%eax
  4015aa:	69 c0 fb 2b 00 00    	imul   $0x2bfb,%eax,%eax
  4015b0:	89 44 24 e8          	mov    %eax,-0x18(%rsp)
  4015b4:	8b 44 24 f4          	mov    -0xc(%rsp),%eax
  4015b8:	69 c0 5b d8 00 00    	imul   $0xd85b,%eax,%eax
  4015be:	89 44 24 f4          	mov    %eax,-0xc(%rsp)
  4015c2:	8b 44 24 e4          	mov    -0x1c(%rsp),%eax
  4015c6:	69 c0 d2 15 00 00    	imul   $0x15d2,%eax,%eax
  4015cc:	89 44 24 e4          	mov    %eax,-0x1c(%rsp)
  4015d0:	8b 44 24 d8          	mov    -0x28(%rsp),%eax
  4015d4:	69 c0 4f fe 00 00    	imul   $0xfe4f,%eax,%eax
  4015da:	89 44 24 d8          	mov    %eax,-0x28(%rsp)
  4015de:	8b 44 24 f4          	mov    -0xc(%rsp),%eax
  4015e2:	69 c0 fd 4f 00 00    	imul   $0x4ffd,%eax,%eax
  4015e8:	89 44 24 f4          	mov    %eax,-0xc(%rsp)
  4015ec:	8b 44 24 e8          	mov    -0x18(%rsp),%eax
  4015f0:	69 c0 26 7a 00 00    	imul   $0x7a26,%eax,%eax
  4015f6:	89 44 24 e8          	mov    %eax,-0x18(%rsp)
  4015fa:	8b 44 24 e0          	mov    -0x20(%rsp),%eax
  4015fe:	69 c0 7e e0 00 00    	imul   $0xe07e,%eax,%eax
  401604:	89 44 24 e0          	mov    %eax,-0x20(%rsp)
  401608:	8b 44 24 d0          	mov    -0x30(%rsp),%eax
  40160c:	69 c0 de b2 00 00    	imul   $0xb2de,%eax,%eax
  401612:	89 44 24 d0          	mov    %eax,-0x30(%rsp)
  401616:	8b 44 24 f0          	mov    -0x10(%rsp),%eax
  40161a:	69 c0 0c 29 00 00    	imul   $0x290c,%eax,%eax
  401620:	89 44 24 f0          	mov    %eax,-0x10(%rsp)
  401624:	8b 44 24 d4          	mov    -0x2c(%rsp),%eax
  401628:	69 c0 6c e3 00 00    	imul   $0xe36c,%eax,%eax
  40162e:	89 44 24 d4          	mov    %eax,-0x2c(%rsp)
  401632:	8b 44 24 dc          	mov    -0x24(%rsp),%eax
  401636:	69 c0 90 47 00 00    	imul   $0x4790,%eax,%eax
  40163c:	89 44 24 dc          	mov    %eax,-0x24(%rsp)
  401640:	8b 44 24 e4          	mov    -0x1c(%rsp),%eax
  401644:	69 c0 a0 7f 00 00    	imul   $0x7fa0,%eax,%eax
  40164a:	89 44 24 e4          	mov    %eax,-0x1c(%rsp)
  40164e:	8b 44 24 e0          	mov    -0x20(%rsp),%eax
  401652:	69 c0 d5 45 00 00    	imul   $0x45d5,%eax,%eax
  401658:	89 44 24 e0          	mov    %eax,-0x20(%rsp)
  40165c:	8b 44 24 d0          	mov    -0x30(%rsp),%eax
  401660:	69 c0 f4 4e 00 00    	imul   $0x4ef4,%eax,%eax
  401666:	89 44 24 d0          	mov    %eax,-0x30(%rsp)
  40166a:	8b 44 24 d4          	mov    -0x2c(%rsp),%eax
  40166e:	69 c0 0b 5e 00 00    	imul   $0x5e0b,%eax,%eax
  401674:	89 44 24 d4          	mov    %eax,-0x2c(%rsp)
  401678:	8b 44 24 d8          	mov    -0x28(%rsp),%eax
  40167c:	69 c0 23 3b 00 00    	imul   $0x3b23,%eax,%eax
  401682:	89 44 24 d8          	mov    %eax,-0x28(%rsp)
  401686:	8b 44 24 d0          	mov    -0x30(%rsp),%eax
  40168a:	69 c0 c1 3e 00 00    	imul   $0x3ec1,%eax,%eax
  401690:	89 44 24 d0          	mov    %eax,-0x30(%rsp)
  401694:	8b 44 24 e4          	mov    -0x1c(%rsp),%eax
  401698:	69 c0 a3 f2 00 00    	imul   $0xf2a3,%eax,%eax
  40169e:	89 44 24 e4          	mov    %eax,-0x1c(%rsp)
  4016a2:	8b 44 24 e0          	mov    -0x20(%rsp),%eax
  4016a6:	69 c0 47 84 00 00    	imul   $0x8447,%eax,%eax
  4016ac:	89 44 24 e0          	mov    %eax,-0x20(%rsp)
  4016b0:	8b 44 24 e0          	mov    -0x20(%rsp),%eax
  4016b4:	69 c0 95 99 00 00    	imul   $0x9995,%eax,%eax
  4016ba:	89 44 24 e0          	mov    %eax,-0x20(%rsp)
  4016be:	8b 44 24 ec          	mov    -0x14(%rsp),%eax
  4016c2:	69 c0 70 72 00 00    	imul   $0x7270,%eax,%eax
  4016c8:	89 44 24 ec          	mov    %eax,-0x14(%rsp)
  4016cc:	8b 44 24 f0          	mov    -0x10(%rsp),%eax
  4016d0:	69 c0 b7 70 00 00    	imul   $0x70b7,%eax,%eax
  4016d6:	89 44 24 f0          	mov    %eax,-0x10(%rsp)
  4016da:	8b 44 24 ec          	mov    -0x14(%rsp),%eax
  4016de:	69 c0 38 ae 00 00    	imul   $0xae38,%eax,%eax
  4016e4:	89 44 24 ec          	mov    %eax,-0x14(%rsp)
  4016e8:	8b 44 24 e0          	mov    -0x20(%rsp),%eax
  4016ec:	69 c0 d5 2d 00 00    	imul   $0x2dd5,%eax,%eax
  4016f2:	89 44 24 e0          	mov    %eax,-0x20(%rsp)
  4016f6:	8b 44 24 e4          	mov    -0x1c(%rsp),%eax
  4016fa:	69 c0 e6 fa 00 00    	imul   $0xfae6,%eax,%eax
  401700:	89 44 24 e4          	mov    %eax,-0x1c(%rsp)
  401704:	8b 44 24 d8          	mov    -0x28(%rsp),%eax
  401708:	69 c0 d8 ca 00 00    	imul   $0xcad8,%eax,%eax
  40170e:	89 44 24 d8          	mov    %eax,-0x28(%rsp)
  401712:	8b 44 24 f0          	mov    -0x10(%rsp),%eax
  401716:	69 c0 86 b9 00 00    	imul   $0xb986,%eax,%eax
  40171c:	89 44 24 f0          	mov    %eax,-0x10(%rsp)
  401720:	8b 44 24 e8          	mov    -0x18(%rsp),%eax
  401724:	69 c0 ed 36 00 00    	imul   $0x36ed,%eax,%eax
  40172a:	89 44 24 e8          	mov    %eax,-0x18(%rsp)
  40172e:	8b 44 24 f4          	mov    -0xc(%rsp),%eax
  401732:	69 c0 2b 3e 00 00    	imul   $0x3e2b,%eax,%eax
  401738:	89 44 24 f4          	mov    %eax,-0xc(%rsp)
  40173c:	8b 44 24 d8          	mov    -0x28(%rsp),%eax
  401740:	69 c0 68 e2 00 00    	imul   $0xe268,%eax,%eax
  401746:	89 44 24 d8          	mov    %eax,-0x28(%rsp)
  40174a:	8b 44 24 ec          	mov    -0x14(%rsp),%eax
  40174e:	69 c0 94 fd 00 00    	imul   $0xfd94,%eax,%eax
  401754:	89 44 24 ec          	mov    %eax,-0x14(%rsp)
  401758:	8b 44 24 d4          	mov    -0x2c(%rsp),%eax
  40175c:	69 c0 3c 26 00 00    	imul   $0x263c,%eax,%eax
  401762:	89 44 24 d4          	mov    %eax,-0x2c(%rsp)
  401766:	8b 44 24 d0          	mov    -0x30(%rsp),%eax
  40176a:	69 c0 09 31 00 00    	imul   $0x3109,%eax,%eax
  401770:	89 44 24 d0          	mov    %eax,-0x30(%rsp)
  401774:	8b 44 24 e0          	mov    -0x20(%rsp),%eax
  401778:	69 c0 e8 90 00 00    	imul   $0x90e8,%eax,%eax
  40177e:	89 44 24 e0          	mov    %eax,-0x20(%rsp)
  401782:	8b 44 24 e8          	mov    -0x18(%rsp),%eax
  401786:	69 c0 d2 09 00 00    	imul   $0x9d2,%eax,%eax
  40178c:	89 44 24 e8          	mov    %eax,-0x18(%rsp)
  401790:	8b 44 24 d0          	mov    -0x30(%rsp),%eax
  401794:	69 c0 95 89 00 00    	imul   $0x8995,%eax,%eax
  40179a:	89 44 24 d0          	mov    %eax,-0x30(%rsp)
  40179e:	8b 44 24 d8          	mov    -0x28(%rsp),%eax
  4017a2:	69 c0 39 3e 00 00    	imul   $0x3e39,%eax,%eax
  4017a8:	89 44 24 d8          	mov    %eax,-0x28(%rsp)
  4017ac:	8b 44 24 ec          	mov    -0x14(%rsp),%eax
  4017b0:	69 c0 31 cf 00 00    	imul   $0xcf31,%eax,%eax
  4017b6:	89 44 24 ec          	mov    %eax,-0x14(%rsp)
  4017ba:	8b 44 24 d0          	mov    -0x30(%rsp),%eax
  4017be:	69 c0 e1 1d 00 00    	imul   $0x1de1,%eax,%eax
  4017c4:	89 44 24 d0          	mov    %eax,-0x30(%rsp)
  4017c8:	8b 44 24 f4          	mov    -0xc(%rsp),%eax
  4017cc:	69 c0 b6 c3 00 00    	imul   $0xc3b6,%eax,%eax
  4017d2:	89 44 24 f4          	mov    %eax,-0xc(%rsp)
  4017d6:	8b 44 24 d0          	mov    -0x30(%rsp),%eax
  4017da:	69 c0 47 0e 00 00    	imul   $0xe47,%eax,%eax
  4017e0:	89 44 24 d0          	mov    %eax,-0x30(%rsp)
  4017e4:	8b 44 24 e8          	mov    -0x18(%rsp),%eax
  4017e8:	69 c0 3d 5b 00 00    	imul   $0x5b3d,%eax,%eax
  4017ee:	89 44 24 e8          	mov    %eax,-0x18(%rsp)
  4017f2:	8b 44 24 f4          	mov    -0xc(%rsp),%eax
  4017f6:	69 c0 06 d9 00 00    	imul   $0xd906,%eax,%eax
  4017fc:	89 44 24 f4          	mov    %eax,-0xc(%rsp)
  401800:	8b 44 24 e4          	mov    -0x1c(%rsp),%eax
  401804:	69 c0 2a c7 00 00    	imul   $0xc72a,%eax,%eax
  40180a:	89 44 24 e4          	mov    %eax,-0x1c(%rsp)
  40180e:	8b 44 24 d8          	mov    -0x28(%rsp),%eax
  401812:	69 c0 0c 18 00 00    	imul   $0x180c,%eax,%eax
  401818:	89 44 24 d8          	mov    %eax,-0x28(%rsp)
  40181c:	8b 44 24 e4          	mov    -0x1c(%rsp),%eax
  401820:	69 c0 67 b3 00 00    	imul   $0xb367,%eax,%eax
  401826:	89 44 24 e4          	mov    %eax,-0x1c(%rsp)
  40182a:	8b 44 24 e8          	mov    -0x18(%rsp),%eax
  40182e:	69 c0 1d c7 00 00    	imul   $0xc71d,%eax,%eax
  401834:	89 44 24 e8          	mov    %eax,-0x18(%rsp)
  401838:	8b 44 24 f0          	mov    -0x10(%rsp),%eax
  40183c:	69 c0 f6 51 00 00    	imul   $0x51f6,%eax,%eax
  401842:	89 44 24 f0          	mov    %eax,-0x10(%rsp)
  401846:	8b 44 24 e4          	mov    -0x1c(%rsp),%eax
  40184a:	69 c0 84 f2 00 00    	imul   $0xf284,%eax,%eax
  401850:	89 44 24 e4          	mov    %eax,-0x1c(%rsp)
  401854:	8b 44 24 e0          	mov    -0x20(%rsp),%eax
  401858:	69 c0 76 ad 00 00    	imul   $0xad76,%eax,%eax
  40185e:	89 44 24 e0          	mov    %eax,-0x20(%rsp)
  401862:	8b 44 24 e4          	mov    -0x1c(%rsp),%eax
  401866:	69 c0 5d 0d 00 00    	imul   $0xd5d,%eax,%eax
  40186c:	89 44 24 e4          	mov    %eax,-0x1c(%rsp)
  401870:	8b 44 24 e8          	mov    -0x18(%rsp),%eax
  401874:	69 c0 99 78 00 00    	imul   $0x7899,%eax,%eax
  40187a:	89 44 24 e8          	mov    %eax,-0x18(%rsp)
  40187e:	8b 44 24 f0          	mov    -0x10(%rsp),%eax
  401882:	69 c0 57 31 00 00    	imul   $0x3157,%eax,%eax
  401888:	89 44 24 f0          	mov    %eax,-0x10(%rsp)
  40188c:	8b 44 24 f4          	mov    -0xc(%rsp),%eax
  401890:	69 c0 08 38 00 00    	imul   $0x3808,%eax,%eax
  401896:	89 44 24 f4          	mov    %eax,-0xc(%rsp)
  40189a:	8b 44 24 f0          	mov    -0x10(%rsp),%eax
  40189e:	69 c0 d0 44 00 00    	imul   $0x44d0,%eax,%eax
  4018a4:	89 44 24 f0          	mov    %eax,-0x10(%rsp)
  4018a8:	8b 44 24 e4          	mov    -0x1c(%rsp),%eax
  4018ac:	69 c0 00 68 00 00    	imul   $0x6800,%eax,%eax
  4018b2:	89 44 24 e4          	mov    %eax,-0x1c(%rsp)
  4018b6:	8b 44 24 d8          	mov    -0x28(%rsp),%eax
  4018ba:	69 c0 4c 8a 00 00    	imul   $0x8a4c,%eax,%eax
  4018c0:	89 44 24 d8          	mov    %eax,-0x28(%rsp)
  4018c4:	8b 44 24 f0          	mov    -0x10(%rsp),%eax
  4018c8:	69 c0 e5 1a 00 00    	imul   $0x1ae5,%eax,%eax
  4018ce:	89 44 24 f0          	mov    %eax,-0x10(%rsp)
  4018d2:	8b 44 24 ec          	mov    -0x14(%rsp),%eax
  4018d6:	69 c0 69 55 00 00    	imul   $0x5569,%eax,%eax
  4018dc:	89 44 24 ec          	mov    %eax,-0x14(%rsp)
  4018e0:	8b 44 24 dc          	mov    -0x24(%rsp),%eax
  4018e4:	69 c0 84 7a 00 00    	imul   $0x7a84,%eax,%eax
  4018ea:	89 44 24 dc          	mov    %eax,-0x24(%rsp)
  4018ee:	8b 44 24 e4          	mov    -0x1c(%rsp),%eax
  4018f2:	69 c0 a1 8b 00 00    	imul   $0x8ba1,%eax,%eax
  4018f8:	89 44 24 e4          	mov    %eax,-0x1c(%rsp)
  4018fc:	8b 44 24 d8          	mov    -0x28(%rsp),%eax
  401900:	69 c0 16 83 00 00    	imul   $0x8316,%eax,%eax
  401906:	89 44 24 d8          	mov    %eax,-0x28(%rsp)
  40190a:	8b 44 24 ec          	mov    -0x14(%rsp),%eax
  40190e:	69 c0 8f 07 00 00    	imul   $0x78f,%eax,%eax
  401914:	89 44 24 ec          	mov    %eax,-0x14(%rsp)
  401918:	8b 44 24 d4          	mov    -0x2c(%rsp),%eax
  40191c:	69 c0 e4 4a 00 00    	imul   $0x4ae4,%eax,%eax
  401922:	89 44 24 d4          	mov    %eax,-0x2c(%rsp)
  401926:	8b 44 24 ec          	mov    -0x14(%rsp),%eax
  40192a:	69 c0 ec b7 00 00    	imul   $0xb7ec,%eax,%eax
  401930:	89 44 24 ec          	mov    %eax,-0x14(%rsp)
  401934:	8b 44 24 e4          	mov    -0x1c(%rsp),%eax
  401938:	69 c0 6a f6 00 00    	imul   $0xf66a,%eax,%eax
  40193e:	89 44 24 e4          	mov    %eax,-0x1c(%rsp)
  401942:	8b 44 24 e4          	mov    -0x1c(%rsp),%eax
  401946:	69 c0 66 2f 00 00    	imul   $0x2f66,%eax,%eax
  40194c:	89 44 24 e4          	mov    %eax,-0x1c(%rsp)
  401950:	8b 44 24 d8          	mov    -0x28(%rsp),%eax
  401954:	69 c0 df 10 00 00    	imul   $0x10df,%eax,%eax
  40195a:	89 44 24 d8          	mov    %eax,-0x28(%rsp)
  40195e:	8b 44 24 f4          	mov    -0xc(%rsp),%eax
  401962:	69 c0 cd b6 00 00    	imul   $0xb6cd,%eax,%eax
  401968:	89 44 24 f4          	mov    %eax,-0xc(%rsp)
  40196c:	8b 44 24 d4          	mov    -0x2c(%rsp),%eax
  401970:	69 c0 f7 af 00 00    	imul   $0xaff7,%eax,%eax
  401976:	89 44 24 d4          	mov    %eax,-0x2c(%rsp)
  40197a:	8b 44 24 dc          	mov    -0x24(%rsp),%eax
  40197e:	69 c0 a5 44 00 00    	imul   $0x44a5,%eax,%eax
  401984:	89 44 24 dc          	mov    %eax,-0x24(%rsp)
  401988:	8b 44 24 ec          	mov    -0x14(%rsp),%eax
  40198c:	69 c0 b4 4e 00 00    	imul   $0x4eb4,%eax,%eax
  401992:	89 44 24 ec          	mov    %eax,-0x14(%rsp)
  401996:	8b 44 24 d8          	mov    -0x28(%rsp),%eax
  40199a:	69 c0 35 db 00 00    	imul   $0xdb35,%eax,%eax
  4019a0:	89 44 24 d8          	mov    %eax,-0x28(%rsp)
  4019a4:	8b 44 24 f0          	mov    -0x10(%rsp),%eax
  4019a8:	69 c0 44 32 00 00    	imul   $0x3244,%eax,%eax
  4019ae:	89 44 24 f0          	mov    %eax,-0x10(%rsp)
  4019b2:	8b 44 24 e0          	mov    -0x20(%rsp),%eax
  4019b6:	69 c0 a9 4b 00 00    	imul   $0x4ba9,%eax,%eax
  4019bc:	89 44 24 e0          	mov    %eax,-0x20(%rsp)
  4019c0:	8b 44 24 dc          	mov    -0x24(%rsp),%eax
  4019c4:	69 c0 14 9e 00 00    	imul   $0x9e14,%eax,%eax
  4019ca:	89 44 24 dc          	mov    %eax,-0x24(%rsp)
  4019ce:	8b 44 24 e0          	mov    -0x20(%rsp),%eax
  4019d2:	69 c0 b3 da 00 00    	imul   $0xdab3,%eax,%eax
  4019d8:	89 44 24 e0          	mov    %eax,-0x20(%rsp)
  4019dc:	8b 44 24 e4          	mov    -0x1c(%rsp),%eax
  4019e0:	69 c0 09 2a 00 00    	imul   $0x2a09,%eax,%eax
  4019e6:	89 44 24 e4          	mov    %eax,-0x1c(%rsp)
  4019ea:	8b 44 24 f0          	mov    -0x10(%rsp),%eax
  4019ee:	69 c0 37 f6 00 00    	imul   $0xf637,%eax,%eax
  4019f4:	89 44 24 f0          	mov    %eax,-0x10(%rsp)
  4019f8:	8b 44 24 e4          	mov    -0x1c(%rsp),%eax
  4019fc:	69 c0 56 dc 00 00    	imul   $0xdc56,%eax,%eax
  401a02:	89 44 24 e4          	mov    %eax,-0x1c(%rsp)
  401a06:	8b 44 24 e0          	mov    -0x20(%rsp),%eax
  401a0a:	69 c0 49 6d 00 00    	imul   $0x6d49,%eax,%eax
  401a10:	89 44 24 e0          	mov    %eax,-0x20(%rsp)
  401a14:	8b 44 24 d4          	mov    -0x2c(%rsp),%eax
  401a18:	69 c0 6c 73 00 00    	imul   $0x736c,%eax,%eax
  401a1e:	89 44 24 d4          	mov    %eax,-0x2c(%rsp)
  401a22:	8b 44 24 e0          	mov    -0x20(%rsp),%eax
  401a26:	69 c0 c3 41 00 00    	imul   $0x41c3,%eax,%eax
  401a2c:	89 44 24 e0          	mov    %eax,-0x20(%rsp)
  401a30:	ba 00 00 00 00       	mov    $0x0,%edx
  401a35:	b8 00 00 00 00       	mov    $0x0,%eax
  401a3a:	eb 0b                	jmp    401a47 <scramble+0x574>
  401a3c:	89 d1                	mov    %edx,%ecx
  401a3e:	8b 4c 8c d0          	mov    -0x30(%rsp,%rcx,4),%ecx
  401a42:	01 c8                	add    %ecx,%eax
  401a44:	83 c2 01             	add    $0x1,%edx
  401a47:	83 fa 09             	cmp    $0x9,%edx
  401a4a:	76 f0                	jbe    401a3c <scramble+0x569>
  401a4c:	f3 c3                	repz retq 

0000000000401a4e <getbuf>:
  401a4e:	48 83 ec 28          	sub    $0x28,%rsp
  401a52:	48 89 e7             	mov    %rsp,%rdi
  401a55:	e8 50 03 00 00       	callq  401daa <Gets>
  401a5a:	b8 01 00 00 00       	mov    $0x1,%eax
  401a5f:	48 83 c4 28          	add    $0x28,%rsp
  401a63:	c3                   	retq   

0000000000401a64 <touch1>:
  401a64:	48 83 ec 08          	sub    $0x8,%rsp
  401a68:	c7 05 8a 3a 20 00 01 	movl   $0x1,0x203a8a(%rip)        # 6054fc <vlevel>
  401a6f:	00 00 00 
  401a72:	bf 66 33 40 00       	mov    $0x403366,%edi
  401a77:	e8 94 f3 ff ff       	callq  400e10 <puts@plt>
  401a7c:	bf 01 00 00 00       	mov    $0x1,%edi
  401a81:	e8 0c 05 00 00       	callq  401f92 <validate>
  401a86:	bf 00 00 00 00       	mov    $0x0,%edi
  401a8b:	e8 10 f5 ff ff       	callq  400fa0 <exit@plt>

0000000000401a90 <touch2>:
  401a90:	48 83 ec 08          	sub    $0x8,%rsp
  401a94:	89 fe                	mov    %edi,%esi
  401a96:	c7 05 5c 3a 20 00 02 	movl   $0x2,0x203a5c(%rip)        # 6054fc <vlevel>
  401a9d:	00 00 00 
  401aa0:	39 3d 5e 3a 20 00    	cmp    %edi,0x203a5e(%rip)        # 605504 <cookie>
  401aa6:	75 1b                	jne    401ac3 <touch2+0x33>
  401aa8:	bf 88 33 40 00       	mov    $0x403388,%edi
  401aad:	b8 00 00 00 00       	mov    $0x0,%eax
  401ab2:	e8 89 f3 ff ff       	callq  400e40 <printf@plt>
  401ab7:	bf 02 00 00 00       	mov    $0x2,%edi
  401abc:	e8 d1 04 00 00       	callq  401f92 <validate>
  401ac1:	eb 19                	jmp    401adc <touch2+0x4c>
  401ac3:	bf b0 33 40 00       	mov    $0x4033b0,%edi
  401ac8:	b8 00 00 00 00       	mov    $0x0,%eax
  401acd:	e8 6e f3 ff ff       	callq  400e40 <printf@plt>
  401ad2:	bf 02 00 00 00       	mov    $0x2,%edi
  401ad7:	e8 68 05 00 00       	callq  402044 <fail>
  401adc:	bf 00 00 00 00       	mov    $0x0,%edi
  401ae1:	e8 ba f4 ff ff       	callq  400fa0 <exit@plt>

0000000000401ae6 <hexmatch>:
  401ae6:	41 54                	push   %r12
  401ae8:	55                   	push   %rbp
  401ae9:	53                   	push   %rbx
  401aea:	48 83 ec 70          	sub    $0x70,%rsp
  401aee:	89 fd                	mov    %edi,%ebp
  401af0:	48 89 f3             	mov    %rsi,%rbx
  401af3:	e8 08 f4 ff ff       	callq  400f00 <random@plt>
  401af8:	48 89 c1             	mov    %rax,%rcx
  401afb:	48 ba 0b d7 a3 70 3d 	movabs $0xa3d70a3d70a3d70b,%rdx
  401b02:	0a d7 a3 
  401b05:	48 f7 ea             	imul   %rdx
  401b08:	48 01 ca             	add    %rcx,%rdx
  401b0b:	48 c1 fa 06          	sar    $0x6,%rdx
  401b0f:	48 89 c8             	mov    %rcx,%rax
  401b12:	48 c1 f8 3f          	sar    $0x3f,%rax
  401b16:	48 29 c2             	sub    %rax,%rdx
  401b19:	48 8d 04 92          	lea    (%rdx,%rdx,4),%rax
  401b1d:	48 8d 14 80          	lea    (%rax,%rax,4),%rdx
  401b21:	48 8d 04 95 00 00 00 	lea    0x0(,%rdx,4),%rax
  401b28:	00 
  401b29:	48 29 c1             	sub    %rax,%rcx
  401b2c:	4c 8d 24 0c          	lea    (%rsp,%rcx,1),%r12
  401b30:	89 ea                	mov    %ebp,%edx
  401b32:	be 83 33 40 00       	mov    $0x403383,%esi
  401b37:	4c 89 e7             	mov    %r12,%rdi
  401b3a:	b8 00 00 00 00       	mov    $0x0,%eax
  401b3f:	e8 4c f4 ff ff       	callq  400f90 <sprintf@plt>
  401b44:	ba 09 00 00 00       	mov    $0x9,%edx
  401b49:	4c 89 e6             	mov    %r12,%rsi
  401b4c:	48 89 df             	mov    %rbx,%rdi
  401b4f:	e8 9c f2 ff ff       	callq  400df0 <strncmp@plt>
  401b54:	85 c0                	test   %eax,%eax
  401b56:	0f 94 c0             	sete   %al
  401b59:	0f b6 c0             	movzbl %al,%eax
  401b5c:	48 83 c4 70          	add    $0x70,%rsp
  401b60:	5b                   	pop    %rbx
  401b61:	5d                   	pop    %rbp
  401b62:	41 5c                	pop    %r12
  401b64:	c3                   	retq   

0000000000401b65 <touch3>:
  401b65:	53                   	push   %rbx
  401b66:	48 89 fb             	mov    %rdi,%rbx
  401b69:	c7 05 89 39 20 00 03 	movl   $0x3,0x203989(%rip)        # 6054fc <vlevel>
  401b70:	00 00 00 
  401b73:	48 89 fe             	mov    %rdi,%rsi
  401b76:	8b 3d 88 39 20 00    	mov    0x203988(%rip),%edi        # 605504 <cookie>
  401b7c:	e8 65 ff ff ff       	callq  401ae6 <hexmatch>
  401b81:	85 c0                	test   %eax,%eax
  401b83:	74 1e                	je     401ba3 <touch3+0x3e>
  401b85:	48 89 de             	mov    %rbx,%rsi
  401b88:	bf d8 33 40 00       	mov    $0x4033d8,%edi
  401b8d:	b8 00 00 00 00       	mov    $0x0,%eax
  401b92:	e8 a9 f2 ff ff       	callq  400e40 <printf@plt>
  401b97:	bf 03 00 00 00       	mov    $0x3,%edi
  401b9c:	e8 f1 03 00 00       	callq  401f92 <validate>
  401ba1:	eb 1c                	jmp    401bbf <touch3+0x5a>
  401ba3:	48 89 de             	mov    %rbx,%rsi
  401ba6:	bf 00 34 40 00       	mov    $0x403400,%edi
  401bab:	b8 00 00 00 00       	mov    $0x0,%eax
  401bb0:	e8 8b f2 ff ff       	callq  400e40 <printf@plt>
  401bb5:	bf 03 00 00 00       	mov    $0x3,%edi
  401bba:	e8 85 04 00 00       	callq  402044 <fail>
  401bbf:	bf 00 00 00 00       	mov    $0x0,%edi
  401bc4:	e8 d7 f3 ff ff       	callq  400fa0 <exit@plt>

0000000000401bc9 <test>:
  401bc9:	48 83 ec 08          	sub    $0x8,%rsp
  401bcd:	b8 00 00 00 00       	mov    $0x0,%eax
  401bd2:	e8 77 fe ff ff       	callq  401a4e <getbuf>
  401bd7:	89 c6                	mov    %eax,%esi
  401bd9:	bf 28 34 40 00       	mov    $0x403428,%edi
  401bde:	b8 00 00 00 00       	mov    $0x0,%eax
  401be3:	e8 58 f2 ff ff       	callq  400e40 <printf@plt>
  401be8:	48 83 c4 08          	add    $0x8,%rsp
  401bec:	c3                   	retq   

0000000000401bed <start_farm>:
  401bed:	b8 01 00 00 00       	mov    $0x1,%eax
  401bf2:	c3                   	retq   

0000000000401bf3 <getval_288>:
  401bf3:	b8 48 90 90 c3       	mov    $0xc3909048,%eax
  401bf8:	c3                   	retq   

0000000000401bf9 <addval_294>:
  401bf9:	8d 87 48 89 c7 c1    	lea    -0x3e3876b8(%rdi),%eax
  401bff:	c3                   	retq   

0000000000401c00 <getval_222>:
  401c00:	b8 21 17 58 c3       	mov    $0xc3581721,%eax
  401c05:	c3                   	retq   

0000000000401c06 <addval_252>:
  401c06:	8d 87 42 58 c3 13    	lea    0x13c35842(%rdi),%eax
  401c0c:	c3                   	retq   

0000000000401c0d <addval_358>:
  401c0d:	8d 87 48 89 c7 90    	lea    -0x6f3876b8(%rdi),%eax
  401c13:	c3                   	retq   

0000000000401c14 <setval_284>:
  401c14:	c7 07 5e 48 89 c7    	movl   $0xc789485e,(%rdi)
  401c1a:	c3                   	retq   

0000000000401c1b <setval_388>:
  401c1b:	c7 07 48 89 c7 94    	movl   $0x94c78948,(%rdi)
  401c21:	c3                   	retq   

0000000000401c22 <setval_219>:
  401c22:	c7 07 47 d8 90 c3    	movl   $0xc390d847,(%rdi)
  401c28:	c3                   	retq   

0000000000401c29 <mid_farm>:
  401c29:	b8 01 00 00 00       	mov    $0x1,%eax
  401c2e:	c3                   	retq   

0000000000401c2f <add_xy>:
  401c2f:	48 8d 04 37          	lea    (%rdi,%rsi,1),%rax
  401c33:	c3                   	retq   

0000000000401c34 <setval_286>:
  401c34:	c7 07 89 c2 90 90    	movl   $0x9090c289,(%rdi)
  401c3a:	c3                   	retq   

0000000000401c3b <addval_259>:
  401c3b:	8d 87 89 c2 c4 c0    	lea    -0x3f3b3d77(%rdi),%eax
  401c41:	c3                   	retq   

0000000000401c42 <setval_398>:
  401c42:	c7 07 48 99 e0 c3    	movl   $0xc3e09948,(%rdi)
  401c48:	c3                   	retq   

0000000000401c49 <addval_195>:
  401c49:	8d 87 48 89 e0 c7    	lea    -0x381f76b8(%rdi),%eax
  401c4f:	c3                   	retq   

0000000000401c50 <addval_454>:
  401c50:	8d 87 8d c2 20 c9    	lea    -0x36df3d73(%rdi),%eax
  401c56:	c3                   	retq   

0000000000401c57 <getval_331>:
  401c57:	b8 89 d1 28 c0       	mov    $0xc028d189,%eax
  401c5c:	c3                   	retq   

0000000000401c5d <setval_151>:
  401c5d:	c7 07 89 d1 38 db    	movl   $0xdb38d189,(%rdi)
  401c63:	c3                   	retq   

0000000000401c64 <addval_260>:
  401c64:	8d 87 89 ce 90 c2    	lea    -0x3d6f3177(%rdi),%eax
  401c6a:	c3                   	retq   

0000000000401c6b <setval_161>:
  401c6b:	c7 07 89 c2 c4 db    	movl   $0xdbc4c289,(%rdi)
  401c71:	c3                   	retq   

0000000000401c72 <getval_406>:
  401c72:	b8 89 d1 18 c0       	mov    $0xc018d189,%eax
  401c77:	c3                   	retq   

0000000000401c78 <addval_275>:
  401c78:	8d 87 88 c2 90 90    	lea    -0x6f6f3d78(%rdi),%eax
  401c7e:	c3                   	retq   

0000000000401c7f <addval_481>:
  401c7f:	8d 87 48 89 e0 91    	lea    -0x6e1f76b8(%rdi),%eax
  401c85:	c3                   	retq   

0000000000401c86 <getval_208>:
  401c86:	b8 40 89 e0 c3       	mov    $0xc3e08940,%eax
  401c8b:	c3                   	retq   

0000000000401c8c <addval_232>:
  401c8c:	8d 87 89 c2 84 c0    	lea    -0x3f7b3d77(%rdi),%eax
  401c92:	c3                   	retq   

0000000000401c93 <setval_141>:
  401c93:	c7 07 48 89 e0 90    	movl   $0x90e08948,(%rdi)
  401c99:	c3                   	retq   

0000000000401c9a <setval_236>:
  401c9a:	c7 07 88 d1 20 d2    	movl   $0xd220d188,(%rdi)
  401ca0:	c3                   	retq   

0000000000401ca1 <addval_347>:
  401ca1:	8d 87 09 c2 20 d2    	lea    -0x2ddf3df7(%rdi),%eax
  401ca7:	c3                   	retq   

0000000000401ca8 <addval_403>:
  401ca8:	8d 87 99 ce 84 c0    	lea    -0x3f7b3167(%rdi),%eax
  401cae:	c3                   	retq   

0000000000401caf <getval_497>:
  401caf:	b8 89 ce 78 db       	mov    $0xdb78ce89,%eax
  401cb4:	c3                   	retq   

0000000000401cb5 <addval_329>:
  401cb5:	8d 87 8b d1 84 c9    	lea    -0x367b2e75(%rdi),%eax
  401cbb:	c3                   	retq   

0000000000401cbc <setval_438>:
  401cbc:	c7 07 89 c2 91 90    	movl   $0x9091c289,(%rdi)
  401cc2:	c3                   	retq   

0000000000401cc3 <getval_106>:
  401cc3:	b8 89 d1 08 db       	mov    $0xdb08d189,%eax
  401cc8:	c3                   	retq   

0000000000401cc9 <getval_187>:
  401cc9:	b8 c9 d1 08 c0       	mov    $0xc008d1c9,%eax
  401cce:	c3                   	retq   

0000000000401ccf <setval_269>:
  401ccf:	c7 07 89 d1 30 d2    	movl   $0xd230d189,(%rdi)
  401cd5:	c3                   	retq   

0000000000401cd6 <getval_352>:
  401cd6:	b8 48 89 e0 92       	mov    $0x92e08948,%eax
  401cdb:	c3                   	retq   

0000000000401cdc <getval_319>:
  401cdc:	b8 99 ce 38 c9       	mov    $0xc938ce99,%eax
  401ce1:	c3                   	retq   

0000000000401ce2 <getval_476>:
  401ce2:	b8 89 ce 60 db       	mov    $0xdb60ce89,%eax
  401ce7:	c3                   	retq   

0000000000401ce8 <setval_281>:
  401ce8:	c7 07 89 ce 78 c0    	movl   $0xc078ce89,(%rdi)
  401cee:	c3                   	retq   

0000000000401cef <addval_436>:
  401cef:	8d 87 48 89 e0 91    	lea    -0x6e1f76b8(%rdi),%eax
  401cf5:	c3                   	retq   

0000000000401cf6 <addval_230>:
  401cf6:	8d 87 89 ce 84 db    	lea    -0x247b3177(%rdi),%eax
  401cfc:	c3                   	retq   

0000000000401cfd <addval_112>:
  401cfd:	8d 87 52 48 89 e0    	lea    -0x1f76b7ae(%rdi),%eax
  401d03:	c3                   	retq   

0000000000401d04 <getval_210>:
  401d04:	b8 89 ce 84 c0       	mov    $0xc084ce89,%eax
  401d09:	c3                   	retq   

0000000000401d0a <end_farm>:
  401d0a:	b8 01 00 00 00       	mov    $0x1,%eax
  401d0f:	c3                   	retq   

0000000000401d10 <save_char>:
  401d10:	8b 05 0e 44 20 00    	mov    0x20440e(%rip),%eax        # 606124 <gets_cnt>
  401d16:	3d ff 03 00 00       	cmp    $0x3ff,%eax
  401d1b:	7f 49                	jg     401d66 <save_char+0x56>
  401d1d:	8d 14 40             	lea    (%rax,%rax,2),%edx
  401d20:	89 f9                	mov    %edi,%ecx
  401d22:	c0 e9 04             	shr    $0x4,%cl
  401d25:	83 e1 0f             	and    $0xf,%ecx
  401d28:	0f b6 b1 50 37 40 00 	movzbl 0x403750(%rcx),%esi
  401d2f:	48 63 ca             	movslq %edx,%rcx
  401d32:	40 88 b1 20 55 60 00 	mov    %sil,0x605520(%rcx)
  401d39:	8d 4a 01             	lea    0x1(%rdx),%ecx
  401d3c:	83 e7 0f             	and    $0xf,%edi
  401d3f:	0f b6 b7 50 37 40 00 	movzbl 0x403750(%rdi),%esi
  401d46:	48 63 c9             	movslq %ecx,%rcx
  401d49:	40 88 b1 20 55 60 00 	mov    %sil,0x605520(%rcx)
  401d50:	83 c2 02             	add    $0x2,%edx
  401d53:	48 63 d2             	movslq %edx,%rdx
  401d56:	c6 82 20 55 60 00 20 	movb   $0x20,0x605520(%rdx)
  401d5d:	83 c0 01             	add    $0x1,%eax
  401d60:	89 05 be 43 20 00    	mov    %eax,0x2043be(%rip)        # 606124 <gets_cnt>
  401d66:	f3 c3                	repz retq 

0000000000401d68 <save_term>:
  401d68:	8b 05 b6 43 20 00    	mov    0x2043b6(%rip),%eax        # 606124 <gets_cnt>
  401d6e:	8d 04 40             	lea    (%rax,%rax,2),%eax
  401d71:	48 98                	cltq   
  401d73:	c6 80 20 55 60 00 00 	movb   $0x0,0x605520(%rax)
  401d7a:	c3                   	retq   

0000000000401d7b <check_fail>:
  401d7b:	48 83 ec 08          	sub    $0x8,%rsp
  401d7f:	0f be 35 a2 43 20 00 	movsbl 0x2043a2(%rip),%esi        # 606128 <target_prefix>
  401d86:	b9 20 55 60 00       	mov    $0x605520,%ecx
  401d8b:	8b 15 67 37 20 00    	mov    0x203767(%rip),%edx        # 6054f8 <check_level>
  401d91:	bf 4b 34 40 00       	mov    $0x40344b,%edi
  401d96:	b8 00 00 00 00       	mov    $0x0,%eax
  401d9b:	e8 a0 f0 ff ff       	callq  400e40 <printf@plt>
  401da0:	bf 01 00 00 00       	mov    $0x1,%edi
  401da5:	e8 f6 f1 ff ff       	callq  400fa0 <exit@plt>

0000000000401daa <Gets>:
  401daa:	41 54                	push   %r12
  401dac:	55                   	push   %rbp
  401dad:	53                   	push   %rbx
  401dae:	49 89 fc             	mov    %rdi,%r12
  401db1:	c7 05 69 43 20 00 00 	movl   $0x0,0x204369(%rip)        # 606124 <gets_cnt>
  401db8:	00 00 00 
  401dbb:	48 89 fb             	mov    %rdi,%rbx
  401dbe:	eb 11                	jmp    401dd1 <Gets+0x27>
  401dc0:	48 8d 6b 01          	lea    0x1(%rbx),%rbp
  401dc4:	88 03                	mov    %al,(%rbx)
  401dc6:	0f b6 f8             	movzbl %al,%edi
  401dc9:	e8 42 ff ff ff       	callq  401d10 <save_char>
  401dce:	48 89 eb             	mov    %rbp,%rbx
  401dd1:	48 8b 3d 18 37 20 00 	mov    0x203718(%rip),%rdi        # 6054f0 <infile>
  401dd8:	e8 33 f1 ff ff       	callq  400f10 <_IO_getc@plt>
  401ddd:	83 f8 ff             	cmp    $0xffffffff,%eax
  401de0:	74 05                	je     401de7 <Gets+0x3d>
  401de2:	83 f8 0a             	cmp    $0xa,%eax
  401de5:	75 d9                	jne    401dc0 <Gets+0x16>
  401de7:	c6 03 00             	movb   $0x0,(%rbx)
  401dea:	b8 00 00 00 00       	mov    $0x0,%eax
  401def:	e8 74 ff ff ff       	callq  401d68 <save_term>
  401df4:	4c 89 e0             	mov    %r12,%rax
  401df7:	5b                   	pop    %rbx
  401df8:	5d                   	pop    %rbp
  401df9:	41 5c                	pop    %r12
  401dfb:	c3                   	retq   

0000000000401dfc <notify_server>:
  401dfc:	83 3d 05 37 20 00 00 	cmpl   $0x0,0x203705(%rip)        # 605508 <is_checker>
  401e03:	0f 85 87 01 00 00    	jne    401f90 <notify_server+0x194>
  401e09:	53                   	push   %rbx
  401e0a:	48 81 ec 00 40 00 00 	sub    $0x4000,%rsp
  401e11:	89 fb                	mov    %edi,%ebx
  401e13:	8b 05 0b 43 20 00    	mov    0x20430b(%rip),%eax        # 606124 <gets_cnt>
  401e19:	83 c0 64             	add    $0x64,%eax
  401e1c:	3d 00 20 00 00       	cmp    $0x2000,%eax
  401e21:	7e 19                	jle    401e3c <notify_server+0x40>
  401e23:	bf 80 35 40 00       	mov    $0x403580,%edi
  401e28:	b8 00 00 00 00       	mov    $0x0,%eax
  401e2d:	e8 0e f0 ff ff       	callq  400e40 <printf@plt>
  401e32:	bf 01 00 00 00       	mov    $0x1,%edi
  401e37:	e8 64 f1 ff ff       	callq  400fa0 <exit@plt>
  401e3c:	44 0f be 0d e4 42 20 	movsbl 0x2042e4(%rip),%r9d        # 606128 <target_prefix>
  401e43:	00 
  401e44:	83 3d 3d 36 20 00 00 	cmpl   $0x0,0x20363d(%rip)        # 605488 <notify>
  401e4b:	74 09                	je     401e56 <notify_server+0x5a>
  401e4d:	44 8b 05 ac 36 20 00 	mov    0x2036ac(%rip),%r8d        # 605500 <authkey>
  401e54:	eb 06                	jmp    401e5c <notify_server+0x60>
  401e56:	41 b8 ff ff ff ff    	mov    $0xffffffff,%r8d
  401e5c:	85 db                	test   %ebx,%ebx
  401e5e:	74 07                	je     401e67 <notify_server+0x6b>
  401e60:	b9 61 34 40 00       	mov    $0x403461,%ecx
  401e65:	eb 05                	jmp    401e6c <notify_server+0x70>
  401e67:	b9 66 34 40 00       	mov    $0x403466,%ecx
  401e6c:	68 20 55 60 00       	pushq  $0x605520
  401e71:	56                   	push   %rsi
  401e72:	8b 15 d0 32 20 00    	mov    0x2032d0(%rip),%edx        # 605148 <target_id>
  401e78:	be 6b 34 40 00       	mov    $0x40346b,%esi
  401e7d:	48 8d bc 24 10 20 00 	lea    0x2010(%rsp),%rdi
  401e84:	00 
  401e85:	b8 00 00 00 00       	mov    $0x0,%eax
  401e8a:	e8 01 f1 ff ff       	callq  400f90 <sprintf@plt>
  401e8f:	48 83 c4 10          	add    $0x10,%rsp
  401e93:	83 3d ee 35 20 00 00 	cmpl   $0x0,0x2035ee(%rip)        # 605488 <notify>
  401e9a:	74 74                	je     401f10 <notify_server+0x114>
  401e9c:	85 db                	test   %ebx,%ebx
  401e9e:	74 64                	je     401f04 <notify_server+0x108>
  401ea0:	49 89 e1             	mov    %rsp,%r9
  401ea3:	41 b8 00 00 00 00    	mov    $0x0,%r8d
  401ea9:	48 8d 8c 24 00 20 00 	lea    0x2000(%rsp),%rcx
  401eb0:	00 
  401eb1:	48 8b 15 98 32 20 00 	mov    0x203298(%rip),%rdx        # 605150 <lab>
  401eb8:	48 8b 35 99 32 20 00 	mov    0x203299(%rip),%rsi        # 605158 <course>
  401ebf:	48 8b 3d 7a 32 20 00 	mov    0x20327a(%rip),%rdi        # 605140 <user_id>
  401ec6:	e8 bb 0f 00 00       	callq  402e86 <driver_post>
  401ecb:	85 c0                	test   %eax,%eax
  401ecd:	79 1c                	jns    401eeb <notify_server+0xef>
  401ecf:	48 89 e6             	mov    %rsp,%rsi
  401ed2:	bf 87 34 40 00       	mov    $0x403487,%edi
  401ed7:	b8 00 00 00 00       	mov    $0x0,%eax
  401edc:	e8 5f ef ff ff       	callq  400e40 <printf@plt>
  401ee1:	bf 01 00 00 00       	mov    $0x1,%edi
  401ee6:	e8 b5 f0 ff ff       	callq  400fa0 <exit@plt>
  401eeb:	bf b0 35 40 00       	mov    $0x4035b0,%edi
  401ef0:	e8 1b ef ff ff       	callq  400e10 <puts@plt>
  401ef5:	bf 93 34 40 00       	mov    $0x403493,%edi
  401efa:	e8 11 ef ff ff       	callq  400e10 <puts@plt>
  401eff:	e9 84 00 00 00       	jmpq   401f88 <notify_server+0x18c>
  401f04:	bf 9d 34 40 00       	mov    $0x40349d,%edi
  401f09:	e8 02 ef ff ff       	callq  400e10 <puts@plt>
  401f0e:	eb 78                	jmp    401f88 <notify_server+0x18c>
  401f10:	85 db                	test   %ebx,%ebx
  401f12:	74 07                	je     401f1b <notify_server+0x11f>
  401f14:	be 61 34 40 00       	mov    $0x403461,%esi
  401f19:	eb 05                	jmp    401f20 <notify_server+0x124>
  401f1b:	be 66 34 40 00       	mov    $0x403466,%esi
  401f20:	bf e8 35 40 00       	mov    $0x4035e8,%edi
  401f25:	b8 00 00 00 00       	mov    $0x0,%eax
  401f2a:	e8 11 ef ff ff       	callq  400e40 <printf@plt>
  401f2f:	48 8b 35 0a 32 20 00 	mov    0x20320a(%rip),%rsi        # 605140 <user_id>
  401f36:	bf a4 34 40 00       	mov    $0x4034a4,%edi
  401f3b:	b8 00 00 00 00       	mov    $0x0,%eax
  401f40:	e8 fb ee ff ff       	callq  400e40 <printf@plt>
  401f45:	48 8b 35 0c 32 20 00 	mov    0x20320c(%rip),%rsi        # 605158 <course>
  401f4c:	bf b1 34 40 00       	mov    $0x4034b1,%edi
  401f51:	b8 00 00 00 00       	mov    $0x0,%eax
  401f56:	e8 e5 ee ff ff       	callq  400e40 <printf@plt>
  401f5b:	48 8b 35 ee 31 20 00 	mov    0x2031ee(%rip),%rsi        # 605150 <lab>
  401f62:	bf bd 34 40 00       	mov    $0x4034bd,%edi
  401f67:	b8 00 00 00 00       	mov    $0x0,%eax
  401f6c:	e8 cf ee ff ff       	callq  400e40 <printf@plt>
  401f71:	48 8d b4 24 00 20 00 	lea    0x2000(%rsp),%rsi
  401f78:	00 
  401f79:	bf c6 34 40 00       	mov    $0x4034c6,%edi
  401f7e:	b8 00 00 00 00       	mov    $0x0,%eax
  401f83:	e8 b8 ee ff ff       	callq  400e40 <printf@plt>
  401f88:	48 81 c4 00 40 00 00 	add    $0x4000,%rsp
  401f8f:	5b                   	pop    %rbx
  401f90:	f3 c3                	repz retq 

0000000000401f92 <validate>:
  401f92:	53                   	push   %rbx
  401f93:	89 fb                	mov    %edi,%ebx
  401f95:	83 3d 6c 35 20 00 00 	cmpl   $0x0,0x20356c(%rip)        # 605508 <is_checker>
  401f9c:	74 60                	je     401ffe <validate+0x6c>
  401f9e:	39 3d 58 35 20 00    	cmp    %edi,0x203558(%rip)        # 6054fc <vlevel>
  401fa4:	74 14                	je     401fba <validate+0x28>
  401fa6:	bf d2 34 40 00       	mov    $0x4034d2,%edi
  401fab:	e8 60 ee ff ff       	callq  400e10 <puts@plt>
  401fb0:	b8 00 00 00 00       	mov    $0x0,%eax
  401fb5:	e8 c1 fd ff ff       	callq  401d7b <check_fail>
  401fba:	8b 35 38 35 20 00    	mov    0x203538(%rip),%esi        # 6054f8 <check_level>
  401fc0:	39 f7                	cmp    %esi,%edi
  401fc2:	74 1b                	je     401fdf <validate+0x4d>
  401fc4:	89 fa                	mov    %edi,%edx
  401fc6:	bf 10 36 40 00       	mov    $0x403610,%edi
  401fcb:	b8 00 00 00 00       	mov    $0x0,%eax
  401fd0:	e8 6b ee ff ff       	callq  400e40 <printf@plt>
  401fd5:	b8 00 00 00 00       	mov    $0x0,%eax
  401fda:	e8 9c fd ff ff       	callq  401d7b <check_fail>
  401fdf:	0f be 35 42 41 20 00 	movsbl 0x204142(%rip),%esi        # 606128 <target_prefix>
  401fe6:	b9 20 55 60 00       	mov    $0x605520,%ecx
  401feb:	89 fa                	mov    %edi,%edx
  401fed:	bf f0 34 40 00       	mov    $0x4034f0,%edi
  401ff2:	b8 00 00 00 00       	mov    $0x0,%eax
  401ff7:	e8 44 ee ff ff       	callq  400e40 <printf@plt>
  401ffc:	eb 44                	jmp    402042 <validate+0xb0>
  401ffe:	3b 3d f8 34 20 00    	cmp    0x2034f8(%rip),%edi        # 6054fc <vlevel>
  402004:	74 18                	je     40201e <validate+0x8c>
  402006:	bf d2 34 40 00       	mov    $0x4034d2,%edi
  40200b:	e8 00 ee ff ff       	callq  400e10 <puts@plt>
  402010:	89 de                	mov    %ebx,%esi
  402012:	bf 00 00 00 00       	mov    $0x0,%edi
  402017:	e8 e0 fd ff ff       	callq  401dfc <notify_server>
  40201c:	eb 24                	jmp    402042 <validate+0xb0>
  40201e:	0f be 15 03 41 20 00 	movsbl 0x204103(%rip),%edx        # 606128 <target_prefix>
  402025:	89 fe                	mov    %edi,%esi
  402027:	bf 38 36 40 00       	mov    $0x403638,%edi
  40202c:	b8 00 00 00 00       	mov    $0x0,%eax
  402031:	e8 0a ee ff ff       	callq  400e40 <printf@plt>
  402036:	89 de                	mov    %ebx,%esi
  402038:	bf 01 00 00 00       	mov    $0x1,%edi
  40203d:	e8 ba fd ff ff       	callq  401dfc <notify_server>
  402042:	5b                   	pop    %rbx
  402043:	c3                   	retq   

0000000000402044 <fail>:
  402044:	48 83 ec 08          	sub    $0x8,%rsp
  402048:	83 3d b9 34 20 00 00 	cmpl   $0x0,0x2034b9(%rip)        # 605508 <is_checker>
  40204f:	74 0a                	je     40205b <fail+0x17>
  402051:	b8 00 00 00 00       	mov    $0x0,%eax
  402056:	e8 20 fd ff ff       	callq  401d7b <check_fail>
  40205b:	89 fe                	mov    %edi,%esi
  40205d:	bf 00 00 00 00       	mov    $0x0,%edi
  402062:	e8 95 fd ff ff       	callq  401dfc <notify_server>
  402067:	48 83 c4 08          	add    $0x8,%rsp
  40206b:	c3                   	retq   

000000000040206c <bushandler>:
  40206c:	48 83 ec 08          	sub    $0x8,%rsp
  402070:	83 3d 91 34 20 00 00 	cmpl   $0x0,0x203491(%rip)        # 605508 <is_checker>
  402077:	74 14                	je     40208d <bushandler+0x21>
  402079:	bf 05 35 40 00       	mov    $0x403505,%edi
  40207e:	e8 8d ed ff ff       	callq  400e10 <puts@plt>
  402083:	b8 00 00 00 00       	mov    $0x0,%eax
  402088:	e8 ee fc ff ff       	callq  401d7b <check_fail>
  40208d:	bf 70 36 40 00       	mov    $0x403670,%edi
  402092:	e8 79 ed ff ff       	callq  400e10 <puts@plt>
  402097:	bf 0f 35 40 00       	mov    $0x40350f,%edi
  40209c:	e8 6f ed ff ff       	callq  400e10 <puts@plt>
  4020a1:	be 00 00 00 00       	mov    $0x0,%esi
  4020a6:	bf 00 00 00 00       	mov    $0x0,%edi
  4020ab:	e8 4c fd ff ff       	callq  401dfc <notify_server>
  4020b0:	bf 01 00 00 00       	mov    $0x1,%edi
  4020b5:	e8 e6 ee ff ff       	callq  400fa0 <exit@plt>

00000000004020ba <seghandler>:
  4020ba:	48 83 ec 08          	sub    $0x8,%rsp
  4020be:	83 3d 43 34 20 00 00 	cmpl   $0x0,0x203443(%rip)        # 605508 <is_checker>
  4020c5:	74 14                	je     4020db <seghandler+0x21>
  4020c7:	bf 25 35 40 00       	mov    $0x403525,%edi
  4020cc:	e8 3f ed ff ff       	callq  400e10 <puts@plt>
  4020d1:	b8 00 00 00 00       	mov    $0x0,%eax
  4020d6:	e8 a0 fc ff ff       	callq  401d7b <check_fail>
  4020db:	bf 90 36 40 00       	mov    $0x403690,%edi
  4020e0:	e8 2b ed ff ff       	callq  400e10 <puts@plt>
  4020e5:	bf 0f 35 40 00       	mov    $0x40350f,%edi
  4020ea:	e8 21 ed ff ff       	callq  400e10 <puts@plt>
  4020ef:	be 00 00 00 00       	mov    $0x0,%esi
  4020f4:	bf 00 00 00 00       	mov    $0x0,%edi
  4020f9:	e8 fe fc ff ff       	callq  401dfc <notify_server>
  4020fe:	bf 01 00 00 00       	mov    $0x1,%edi
  402103:	e8 98 ee ff ff       	callq  400fa0 <exit@plt>

0000000000402108 <illegalhandler>:
  402108:	48 83 ec 08          	sub    $0x8,%rsp
  40210c:	83 3d f5 33 20 00 00 	cmpl   $0x0,0x2033f5(%rip)        # 605508 <is_checker>
  402113:	74 14                	je     402129 <illegalhandler+0x21>
  402115:	bf 38 35 40 00       	mov    $0x403538,%edi
  40211a:	e8 f1 ec ff ff       	callq  400e10 <puts@plt>
  40211f:	b8 00 00 00 00       	mov    $0x0,%eax
  402124:	e8 52 fc ff ff       	callq  401d7b <check_fail>
  402129:	bf b8 36 40 00       	mov    $0x4036b8,%edi
  40212e:	e8 dd ec ff ff       	callq  400e10 <puts@plt>
  402133:	bf 0f 35 40 00       	mov    $0x40350f,%edi
  402138:	e8 d3 ec ff ff       	callq  400e10 <puts@plt>
  40213d:	be 00 00 00 00       	mov    $0x0,%esi
  402142:	bf 00 00 00 00       	mov    $0x0,%edi
  402147:	e8 b0 fc ff ff       	callq  401dfc <notify_server>
  40214c:	bf 01 00 00 00       	mov    $0x1,%edi
  402151:	e8 4a ee ff ff       	callq  400fa0 <exit@plt>

0000000000402156 <sigalrmhandler>:
  402156:	48 83 ec 08          	sub    $0x8,%rsp
  40215a:	83 3d a7 33 20 00 00 	cmpl   $0x0,0x2033a7(%rip)        # 605508 <is_checker>
  402161:	74 14                	je     402177 <sigalrmhandler+0x21>
  402163:	bf 4c 35 40 00       	mov    $0x40354c,%edi
  402168:	e8 a3 ec ff ff       	callq  400e10 <puts@plt>
  40216d:	b8 00 00 00 00       	mov    $0x0,%eax
  402172:	e8 04 fc ff ff       	callq  401d7b <check_fail>
  402177:	be 05 00 00 00       	mov    $0x5,%esi
  40217c:	bf e8 36 40 00       	mov    $0x4036e8,%edi
  402181:	b8 00 00 00 00       	mov    $0x0,%eax
  402186:	e8 b5 ec ff ff       	callq  400e40 <printf@plt>
  40218b:	be 00 00 00 00       	mov    $0x0,%esi
  402190:	bf 00 00 00 00       	mov    $0x0,%edi
  402195:	e8 62 fc ff ff       	callq  401dfc <notify_server>
  40219a:	bf 01 00 00 00       	mov    $0x1,%edi
  40219f:	e8 fc ed ff ff       	callq  400fa0 <exit@plt>

00000000004021a4 <launch>:
  4021a4:	55                   	push   %rbp
  4021a5:	48 89 e5             	mov    %rsp,%rbp
  4021a8:	48 89 fa             	mov    %rdi,%rdx
  4021ab:	48 8d 47 1e          	lea    0x1e(%rdi),%rax
  4021af:	48 83 e0 f0          	and    $0xfffffffffffffff0,%rax
  4021b3:	48 29 c4             	sub    %rax,%rsp
  4021b6:	48 8d 7c 24 0f       	lea    0xf(%rsp),%rdi
  4021bb:	48 83 e7 f0          	and    $0xfffffffffffffff0,%rdi
  4021bf:	be f4 00 00 00       	mov    $0xf4,%esi
  4021c4:	e8 87 ec ff ff       	callq  400e50 <memset@plt>
  4021c9:	48 8b 05 d0 32 20 00 	mov    0x2032d0(%rip),%rax        # 6054a0 <stdin@@GLIBC_2.2.5>
  4021d0:	48 39 05 19 33 20 00 	cmp    %rax,0x203319(%rip)        # 6054f0 <infile>
  4021d7:	75 0f                	jne    4021e8 <launch+0x44>
  4021d9:	bf 54 35 40 00       	mov    $0x403554,%edi
  4021de:	b8 00 00 00 00       	mov    $0x0,%eax
  4021e3:	e8 58 ec ff ff       	callq  400e40 <printf@plt>
  4021e8:	c7 05 0a 33 20 00 00 	movl   $0x0,0x20330a(%rip)        # 6054fc <vlevel>
  4021ef:	00 00 00 
  4021f2:	b8 00 00 00 00       	mov    $0x0,%eax
  4021f7:	e8 cd f9 ff ff       	callq  401bc9 <test>
  4021fc:	83 3d 05 33 20 00 00 	cmpl   $0x0,0x203305(%rip)        # 605508 <is_checker>
  402203:	74 14                	je     402219 <launch+0x75>
  402205:	bf 61 35 40 00       	mov    $0x403561,%edi
  40220a:	e8 01 ec ff ff       	callq  400e10 <puts@plt>
  40220f:	b8 00 00 00 00       	mov    $0x0,%eax
  402214:	e8 62 fb ff ff       	callq  401d7b <check_fail>
  402219:	bf 6c 35 40 00       	mov    $0x40356c,%edi
  40221e:	e8 ed eb ff ff       	callq  400e10 <puts@plt>
  402223:	c9                   	leaveq 
  402224:	c3                   	retq   

0000000000402225 <stable_launch>:
  402225:	53                   	push   %rbx
  402226:	48 89 3d bb 32 20 00 	mov    %rdi,0x2032bb(%rip)        # 6054e8 <global_offset>
  40222d:	41 b9 00 00 00 00    	mov    $0x0,%r9d
  402233:	41 b8 00 00 00 00    	mov    $0x0,%r8d
  402239:	b9 32 01 00 00       	mov    $0x132,%ecx
  40223e:	ba 07 00 00 00       	mov    $0x7,%edx
  402243:	be 00 00 10 00       	mov    $0x100000,%esi
  402248:	bf 00 60 58 55       	mov    $0x55586000,%edi
  40224d:	e8 de eb ff ff       	callq  400e30 <mmap@plt>
  402252:	48 89 c3             	mov    %rax,%rbx
  402255:	48 3d 00 60 58 55    	cmp    $0x55586000,%rax
  40225b:	74 32                	je     40228f <stable_launch+0x6a>
  40225d:	be 00 00 10 00       	mov    $0x100000,%esi
  402262:	48 89 c7             	mov    %rax,%rdi
  402265:	e8 c6 ec ff ff       	callq  400f30 <munmap@plt>
  40226a:	ba 00 60 58 55       	mov    $0x55586000,%edx
  40226f:	be 20 37 40 00       	mov    $0x403720,%esi
  402274:	48 8b 3d 45 32 20 00 	mov    0x203245(%rip),%rdi        # 6054c0 <stderr@@GLIBC_2.2.5>
  40227b:	b8 00 00 00 00       	mov    $0x0,%eax
  402280:	e8 3b ec ff ff       	callq  400ec0 <fprintf@plt>
  402285:	bf 01 00 00 00       	mov    $0x1,%edi
  40228a:	e8 11 ed ff ff       	callq  400fa0 <exit@plt>
  40228f:	48 8d 90 f8 ff 0f 00 	lea    0xffff8(%rax),%rdx
  402296:	48 89 15 93 3e 20 00 	mov    %rdx,0x203e93(%rip)        # 606130 <stack_top>
  40229d:	48 89 e0             	mov    %rsp,%rax
  4022a0:	48 89 d4             	mov    %rdx,%rsp
  4022a3:	48 89 c2             	mov    %rax,%rdx
  4022a6:	48 89 15 33 32 20 00 	mov    %rdx,0x203233(%rip)        # 6054e0 <global_save_stack>
  4022ad:	48 8b 3d 34 32 20 00 	mov    0x203234(%rip),%rdi        # 6054e8 <global_offset>
  4022b4:	e8 eb fe ff ff       	callq  4021a4 <launch>
  4022b9:	48 8b 05 20 32 20 00 	mov    0x203220(%rip),%rax        # 6054e0 <global_save_stack>
  4022c0:	48 89 c4             	mov    %rax,%rsp
  4022c3:	be 00 00 10 00       	mov    $0x100000,%esi
  4022c8:	48 89 df             	mov    %rbx,%rdi
  4022cb:	e8 60 ec ff ff       	callq  400f30 <munmap@plt>
  4022d0:	5b                   	pop    %rbx
  4022d1:	c3                   	retq   

00000000004022d2 <rio_readinitb>:
  4022d2:	89 37                	mov    %esi,(%rdi)
  4022d4:	c7 47 04 00 00 00 00 	movl   $0x0,0x4(%rdi)
  4022db:	48 8d 47 10          	lea    0x10(%rdi),%rax
  4022df:	48 89 47 08          	mov    %rax,0x8(%rdi)
  4022e3:	c3                   	retq   

00000000004022e4 <sigalrm_handler>:
  4022e4:	48 83 ec 08          	sub    $0x8,%rsp
  4022e8:	ba 00 00 00 00       	mov    $0x0,%edx
  4022ed:	be 60 37 40 00       	mov    $0x403760,%esi
  4022f2:	48 8b 3d c7 31 20 00 	mov    0x2031c7(%rip),%rdi        # 6054c0 <stderr@@GLIBC_2.2.5>
  4022f9:	b8 00 00 00 00       	mov    $0x0,%eax
  4022fe:	e8 bd eb ff ff       	callq  400ec0 <fprintf@plt>
  402303:	bf 01 00 00 00       	mov    $0x1,%edi
  402308:	e8 93 ec ff ff       	callq  400fa0 <exit@plt>

000000000040230d <urlencode>:
  40230d:	41 54                	push   %r12
  40230f:	55                   	push   %rbp
  402310:	53                   	push   %rbx
  402311:	48 83 ec 10          	sub    $0x10,%rsp
  402315:	48 89 fb             	mov    %rdi,%rbx
  402318:	48 89 f5             	mov    %rsi,%rbp
  40231b:	b8 00 00 00 00       	mov    $0x0,%eax
  402320:	48 c7 c1 ff ff ff ff 	mov    $0xffffffffffffffff,%rcx
  402327:	f2 ae                	repnz scas %es:(%rdi),%al
  402329:	48 f7 d1             	not    %rcx
  40232c:	8d 41 ff             	lea    -0x1(%rcx),%eax
  40232f:	e9 93 00 00 00       	jmpq   4023c7 <urlencode+0xba>
  402334:	0f b6 13             	movzbl (%rbx),%edx
  402337:	80 fa 2a             	cmp    $0x2a,%dl
  40233a:	0f 94 c1             	sete   %cl
  40233d:	80 fa 2d             	cmp    $0x2d,%dl
  402340:	0f 94 c0             	sete   %al
  402343:	08 c1                	or     %al,%cl
  402345:	75 1f                	jne    402366 <urlencode+0x59>
  402347:	80 fa 2e             	cmp    $0x2e,%dl
  40234a:	74 1a                	je     402366 <urlencode+0x59>
  40234c:	80 fa 5f             	cmp    $0x5f,%dl
  40234f:	74 15                	je     402366 <urlencode+0x59>
  402351:	8d 42 d0             	lea    -0x30(%rdx),%eax
  402354:	3c 09                	cmp    $0x9,%al
  402356:	76 0e                	jbe    402366 <urlencode+0x59>
  402358:	8d 42 bf             	lea    -0x41(%rdx),%eax
  40235b:	3c 19                	cmp    $0x19,%al
  40235d:	76 07                	jbe    402366 <urlencode+0x59>
  40235f:	8d 42 9f             	lea    -0x61(%rdx),%eax
  402362:	3c 19                	cmp    $0x19,%al
  402364:	77 09                	ja     40236f <urlencode+0x62>
  402366:	88 55 00             	mov    %dl,0x0(%rbp)
  402369:	48 8d 6d 01          	lea    0x1(%rbp),%rbp
  40236d:	eb 51                	jmp    4023c0 <urlencode+0xb3>
  40236f:	80 fa 20             	cmp    $0x20,%dl
  402372:	75 0a                	jne    40237e <urlencode+0x71>
  402374:	c6 45 00 2b          	movb   $0x2b,0x0(%rbp)
  402378:	48 8d 6d 01          	lea    0x1(%rbp),%rbp
  40237c:	eb 42                	jmp    4023c0 <urlencode+0xb3>
  40237e:	8d 42 e0             	lea    -0x20(%rdx),%eax
  402381:	3c 5f                	cmp    $0x5f,%al
  402383:	0f 96 c1             	setbe  %cl
  402386:	80 fa 09             	cmp    $0x9,%dl
  402389:	0f 94 c0             	sete   %al
  40238c:	08 c1                	or     %al,%cl
  40238e:	74 45                	je     4023d5 <urlencode+0xc8>
  402390:	0f b6 d2             	movzbl %dl,%edx
  402393:	be f8 37 40 00       	mov    $0x4037f8,%esi
  402398:	48 89 e7             	mov    %rsp,%rdi
  40239b:	b8 00 00 00 00       	mov    $0x0,%eax
  4023a0:	e8 eb eb ff ff       	callq  400f90 <sprintf@plt>
  4023a5:	0f b6 04 24          	movzbl (%rsp),%eax
  4023a9:	88 45 00             	mov    %al,0x0(%rbp)
  4023ac:	0f b6 44 24 01       	movzbl 0x1(%rsp),%eax
  4023b1:	88 45 01             	mov    %al,0x1(%rbp)
  4023b4:	0f b6 44 24 02       	movzbl 0x2(%rsp),%eax
  4023b9:	88 45 02             	mov    %al,0x2(%rbp)
  4023bc:	48 8d 6d 03          	lea    0x3(%rbp),%rbp
  4023c0:	48 83 c3 01          	add    $0x1,%rbx
  4023c4:	44 89 e0             	mov    %r12d,%eax
  4023c7:	44 8d 60 ff          	lea    -0x1(%rax),%r12d
  4023cb:	85 c0                	test   %eax,%eax
  4023cd:	0f 85 61 ff ff ff    	jne    402334 <urlencode+0x27>
  4023d3:	eb 05                	jmp    4023da <urlencode+0xcd>
  4023d5:	b8 ff ff ff ff       	mov    $0xffffffff,%eax
  4023da:	48 83 c4 10          	add    $0x10,%rsp
  4023de:	5b                   	pop    %rbx
  4023df:	5d                   	pop    %rbp
  4023e0:	41 5c                	pop    %r12
  4023e2:	c3                   	retq   

00000000004023e3 <rio_writen>:
  4023e3:	41 55                	push   %r13
  4023e5:	41 54                	push   %r12
  4023e7:	55                   	push   %rbp
  4023e8:	53                   	push   %rbx
  4023e9:	48 83 ec 08          	sub    $0x8,%rsp
  4023ed:	41 89 fc             	mov    %edi,%r12d
  4023f0:	48 89 f5             	mov    %rsi,%rbp
  4023f3:	49 89 d5             	mov    %rdx,%r13
  4023f6:	48 89 d3             	mov    %rdx,%rbx
  4023f9:	eb 28                	jmp    402423 <rio_writen+0x40>
  4023fb:	48 89 da             	mov    %rbx,%rdx
  4023fe:	48 89 ee             	mov    %rbp,%rsi
  402401:	44 89 e7             	mov    %r12d,%edi
  402404:	e8 17 ea ff ff       	callq  400e20 <write@plt>
  402409:	48 85 c0             	test   %rax,%rax
  40240c:	7f 0f                	jg     40241d <rio_writen+0x3a>
  40240e:	e8 bd e9 ff ff       	callq  400dd0 <__errno_location@plt>
  402413:	83 38 04             	cmpl   $0x4,(%rax)
  402416:	75 15                	jne    40242d <rio_writen+0x4a>
  402418:	b8 00 00 00 00       	mov    $0x0,%eax
  40241d:	48 29 c3             	sub    %rax,%rbx
  402420:	48 01 c5             	add    %rax,%rbp
  402423:	48 85 db             	test   %rbx,%rbx
  402426:	75 d3                	jne    4023fb <rio_writen+0x18>
  402428:	4c 89 e8             	mov    %r13,%rax
  40242b:	eb 07                	jmp    402434 <rio_writen+0x51>
  40242d:	48 c7 c0 ff ff ff ff 	mov    $0xffffffffffffffff,%rax
  402434:	48 83 c4 08          	add    $0x8,%rsp
  402438:	5b                   	pop    %rbx
  402439:	5d                   	pop    %rbp
  40243a:	41 5c                	pop    %r12
  40243c:	41 5d                	pop    %r13
  40243e:	c3                   	retq   

000000000040243f <rio_read>:
  40243f:	41 55                	push   %r13
  402441:	41 54                	push   %r12
  402443:	55                   	push   %rbp
  402444:	53                   	push   %rbx
  402445:	48 83 ec 08          	sub    $0x8,%rsp
  402449:	48 89 fb             	mov    %rdi,%rbx
  40244c:	49 89 f5             	mov    %rsi,%r13
  40244f:	49 89 d4             	mov    %rdx,%r12
  402452:	eb 2e                	jmp    402482 <rio_read+0x43>
  402454:	48 8d 6b 10          	lea    0x10(%rbx),%rbp
  402458:	ba 00 20 00 00       	mov    $0x2000,%edx
  40245d:	48 89 ee             	mov    %rbp,%rsi
  402460:	8b 3b                	mov    (%rbx),%edi
  402462:	e8 19 ea ff ff       	callq  400e80 <read@plt>
  402467:	89 43 04             	mov    %eax,0x4(%rbx)
  40246a:	85 c0                	test   %eax,%eax
  40246c:	79 0c                	jns    40247a <rio_read+0x3b>
  40246e:	e8 5d e9 ff ff       	callq  400dd0 <__errno_location@plt>
  402473:	83 38 04             	cmpl   $0x4,(%rax)
  402476:	74 0a                	je     402482 <rio_read+0x43>
  402478:	eb 37                	jmp    4024b1 <rio_read+0x72>
  40247a:	85 c0                	test   %eax,%eax
  40247c:	74 3c                	je     4024ba <rio_read+0x7b>
  40247e:	48 89 6b 08          	mov    %rbp,0x8(%rbx)
  402482:	8b 6b 04             	mov    0x4(%rbx),%ebp
  402485:	85 ed                	test   %ebp,%ebp
  402487:	7e cb                	jle    402454 <rio_read+0x15>
  402489:	89 e8                	mov    %ebp,%eax
  40248b:	49 39 c4             	cmp    %rax,%r12
  40248e:	77 03                	ja     402493 <rio_read+0x54>
  402490:	44 89 e5             	mov    %r12d,%ebp
  402493:	4c 63 e5             	movslq %ebp,%r12
  402496:	48 8b 73 08          	mov    0x8(%rbx),%rsi
  40249a:	4c 89 e2             	mov    %r12,%rdx
  40249d:	4c 89 ef             	mov    %r13,%rdi
  4024a0:	e8 3b ea ff ff       	callq  400ee0 <memcpy@plt>
  4024a5:	4c 01 63 08          	add    %r12,0x8(%rbx)
  4024a9:	29 6b 04             	sub    %ebp,0x4(%rbx)
  4024ac:	4c 89 e0             	mov    %r12,%rax
  4024af:	eb 0e                	jmp    4024bf <rio_read+0x80>
  4024b1:	48 c7 c0 ff ff ff ff 	mov    $0xffffffffffffffff,%rax
  4024b8:	eb 05                	jmp    4024bf <rio_read+0x80>
  4024ba:	b8 00 00 00 00       	mov    $0x0,%eax
  4024bf:	48 83 c4 08          	add    $0x8,%rsp
  4024c3:	5b                   	pop    %rbx
  4024c4:	5d                   	pop    %rbp
  4024c5:	41 5c                	pop    %r12
  4024c7:	41 5d                	pop    %r13
  4024c9:	c3                   	retq   

00000000004024ca <rio_readlineb>:
  4024ca:	41 55                	push   %r13
  4024cc:	41 54                	push   %r12
  4024ce:	55                   	push   %rbp
  4024cf:	53                   	push   %rbx
  4024d0:	48 83 ec 18          	sub    $0x18,%rsp
  4024d4:	49 89 fd             	mov    %rdi,%r13
  4024d7:	48 89 f5             	mov    %rsi,%rbp
  4024da:	49 89 d4             	mov    %rdx,%r12
  4024dd:	bb 01 00 00 00       	mov    $0x1,%ebx
  4024e2:	eb 3f                	jmp    402523 <rio_readlineb+0x59>
  4024e4:	ba 01 00 00 00       	mov    $0x1,%edx
  4024e9:	48 8d 74 24 0f       	lea    0xf(%rsp),%rsi
  4024ee:	4c 89 ef             	mov    %r13,%rdi
  4024f1:	e8 49 ff ff ff       	callq  40243f <rio_read>
  4024f6:	83 f8 01             	cmp    $0x1,%eax
  4024f9:	75 15                	jne    402510 <rio_readlineb+0x46>
  4024fb:	48 8d 45 01          	lea    0x1(%rbp),%rax
  4024ff:	0f b6 54 24 0f       	movzbl 0xf(%rsp),%edx
  402504:	88 55 00             	mov    %dl,0x0(%rbp)
  402507:	80 7c 24 0f 0a       	cmpb   $0xa,0xf(%rsp)
  40250c:	75 0e                	jne    40251c <rio_readlineb+0x52>
  40250e:	eb 1a                	jmp    40252a <rio_readlineb+0x60>
  402510:	85 c0                	test   %eax,%eax
  402512:	75 22                	jne    402536 <rio_readlineb+0x6c>
  402514:	48 83 fb 01          	cmp    $0x1,%rbx
  402518:	75 13                	jne    40252d <rio_readlineb+0x63>
  40251a:	eb 23                	jmp    40253f <rio_readlineb+0x75>
  40251c:	48 83 c3 01          	add    $0x1,%rbx
  402520:	48 89 c5             	mov    %rax,%rbp
  402523:	4c 39 e3             	cmp    %r12,%rbx
  402526:	72 bc                	jb     4024e4 <rio_readlineb+0x1a>
  402528:	eb 03                	jmp    40252d <rio_readlineb+0x63>
  40252a:	48 89 c5             	mov    %rax,%rbp
  40252d:	c6 45 00 00          	movb   $0x0,0x0(%rbp)
  402531:	48 89 d8             	mov    %rbx,%rax
  402534:	eb 0e                	jmp    402544 <rio_readlineb+0x7a>
  402536:	48 c7 c0 ff ff ff ff 	mov    $0xffffffffffffffff,%rax
  40253d:	eb 05                	jmp    402544 <rio_readlineb+0x7a>
  40253f:	b8 00 00 00 00       	mov    $0x0,%eax
  402544:	48 83 c4 18          	add    $0x18,%rsp
  402548:	5b                   	pop    %rbx
  402549:	5d                   	pop    %rbp
  40254a:	41 5c                	pop    %r12
  40254c:	41 5d                	pop    %r13
  40254e:	c3                   	retq   

000000000040254f <submitr>:
  40254f:	41 57                	push   %r15
  402551:	41 56                	push   %r14
  402553:	41 55                	push   %r13
  402555:	41 54                	push   %r12
  402557:	55                   	push   %rbp
  402558:	53                   	push   %rbx
  402559:	48 81 ec 48 a0 00 00 	sub    $0xa048,%rsp
  402560:	49 89 fc             	mov    %rdi,%r12
  402563:	89 74 24 04          	mov    %esi,0x4(%rsp)
  402567:	49 89 d7             	mov    %rdx,%r15
  40256a:	49 89 ce             	mov    %rcx,%r14
  40256d:	4c 89 44 24 08       	mov    %r8,0x8(%rsp)
  402572:	4d 89 cd             	mov    %r9,%r13
  402575:	48 8b 9c 24 80 a0 00 	mov    0xa080(%rsp),%rbx
  40257c:	00 
  40257d:	c7 84 24 1c 20 00 00 	movl   $0x0,0x201c(%rsp)
  402584:	00 00 00 00 
  402588:	ba 00 00 00 00       	mov    $0x0,%edx
  40258d:	be 01 00 00 00       	mov    $0x1,%esi
  402592:	bf 02 00 00 00       	mov    $0x2,%edi
  402597:	e8 24 ea ff ff       	callq  400fc0 <socket@plt>
  40259c:	85 c0                	test   %eax,%eax
  40259e:	79 4e                	jns    4025ee <submitr+0x9f>
  4025a0:	48 b8 45 72 72 6f 72 	movabs $0x43203a726f727245,%rax
  4025a7:	3a 20 43 
  4025aa:	48 89 03             	mov    %rax,(%rbx)
  4025ad:	48 b8 6c 69 65 6e 74 	movabs $0x6e7520746e65696c,%rax
  4025b4:	20 75 6e 
  4025b7:	48 89 43 08          	mov    %rax,0x8(%rbx)
  4025bb:	48 b8 61 62 6c 65 20 	movabs $0x206f7420656c6261,%rax
  4025c2:	74 6f 20 
  4025c5:	48 89 43 10          	mov    %rax,0x10(%rbx)
  4025c9:	48 b8 63 72 65 61 74 	movabs $0x7320657461657263,%rax
  4025d0:	65 20 73 
  4025d3:	48 89 43 18          	mov    %rax,0x18(%rbx)
  4025d7:	c7 43 20 6f 63 6b 65 	movl   $0x656b636f,0x20(%rbx)
  4025de:	66 c7 43 24 74 00    	movw   $0x74,0x24(%rbx)
  4025e4:	b8 ff ff ff ff       	mov    $0xffffffff,%eax
  4025e9:	e9 94 06 00 00       	jmpq   402c82 <submitr+0x733>
  4025ee:	89 c5                	mov    %eax,%ebp
  4025f0:	4c 89 e7             	mov    %r12,%rdi
  4025f3:	e8 b8 e8 ff ff       	callq  400eb0 <gethostbyname@plt>
  4025f8:	48 85 c0             	test   %rax,%rax
  4025fb:	75 67                	jne    402664 <submitr+0x115>
  4025fd:	48 b8 45 72 72 6f 72 	movabs $0x44203a726f727245,%rax
  402604:	3a 20 44 
  402607:	48 89 03             	mov    %rax,(%rbx)
  40260a:	48 b8 4e 53 20 69 73 	movabs $0x6e7520736920534e,%rax
  402611:	20 75 6e 
  402614:	48 89 43 08          	mov    %rax,0x8(%rbx)
  402618:	48 b8 61 62 6c 65 20 	movabs $0x206f7420656c6261,%rax
  40261f:	74 6f 20 
  402622:	48 89 43 10          	mov    %rax,0x10(%rbx)
  402626:	48 b8 72 65 73 6f 6c 	movabs $0x2065766c6f736572,%rax
  40262d:	76 65 20 
  402630:	48 89 43 18          	mov    %rax,0x18(%rbx)
  402634:	48 b8 73 65 72 76 65 	movabs $0x6120726576726573,%rax
  40263b:	72 20 61 
  40263e:	48 89 43 20          	mov    %rax,0x20(%rbx)
  402642:	c7 43 28 64 64 72 65 	movl   $0x65726464,0x28(%rbx)
  402649:	66 c7 43 2c 73 73    	movw   $0x7373,0x2c(%rbx)
  40264f:	c6 43 2e 00          	movb   $0x0,0x2e(%rbx)
  402653:	89 ef                	mov    %ebp,%edi
  402655:	e8 16 e8 ff ff       	callq  400e70 <close@plt>
  40265a:	b8 ff ff ff ff       	mov    $0xffffffff,%eax
  40265f:	e9 1e 06 00 00       	jmpq   402c82 <submitr+0x733>
  402664:	48 c7 84 24 30 a0 00 	movq   $0x0,0xa030(%rsp)
  40266b:	00 00 00 00 00 
  402670:	48 c7 84 24 38 a0 00 	movq   $0x0,0xa038(%rsp)
  402677:	00 00 00 00 00 
  40267c:	66 c7 84 24 30 a0 00 	movw   $0x2,0xa030(%rsp)
  402683:	00 02 00 
  402686:	48 8b 48 18          	mov    0x18(%rax),%rcx
  40268a:	48 63 50 14          	movslq 0x14(%rax),%rdx
  40268e:	48 8d b4 24 34 a0 00 	lea    0xa034(%rsp),%rsi
  402695:	00 
  402696:	48 8b 39             	mov    (%rcx),%rdi
  402699:	e8 a2 e8 ff ff       	callq  400f40 <bcopy@plt>
  40269e:	0f b7 44 24 04       	movzwl 0x4(%rsp),%eax
  4026a3:	66 c1 c8 08          	ror    $0x8,%ax
  4026a7:	66 89 84 24 32 a0 00 	mov    %ax,0xa032(%rsp)
  4026ae:	00 
  4026af:	ba 10 00 00 00       	mov    $0x10,%edx
  4026b4:	48 8d b4 24 30 a0 00 	lea    0xa030(%rsp),%rsi
  4026bb:	00 
  4026bc:	89 ef                	mov    %ebp,%edi
  4026be:	e8 ed e8 ff ff       	callq  400fb0 <connect@plt>
  4026c3:	85 c0                	test   %eax,%eax
  4026c5:	79 59                	jns    402720 <submitr+0x1d1>
  4026c7:	48 b8 45 72 72 6f 72 	movabs $0x55203a726f727245,%rax
  4026ce:	3a 20 55 
  4026d1:	48 89 03             	mov    %rax,(%rbx)
  4026d4:	48 b8 6e 61 62 6c 65 	movabs $0x6f7420656c62616e,%rax
  4026db:	20 74 6f 
  4026de:	48 89 43 08          	mov    %rax,0x8(%rbx)
  4026e2:	48 b8 20 63 6f 6e 6e 	movabs $0x7463656e6e6f6320,%rax
  4026e9:	65 63 74 
  4026ec:	48 89 43 10          	mov    %rax,0x10(%rbx)
  4026f0:	48 b8 20 74 6f 20 74 	movabs $0x20656874206f7420,%rax
  4026f7:	68 65 20 
  4026fa:	48 89 43 18          	mov    %rax,0x18(%rbx)
  4026fe:	c7 43 20 73 65 72 76 	movl   $0x76726573,0x20(%rbx)
  402705:	66 c7 43 24 65 72    	movw   $0x7265,0x24(%rbx)
  40270b:	c6 43 26 00          	movb   $0x0,0x26(%rbx)
  40270f:	89 ef                	mov    %ebp,%edi
  402711:	e8 5a e7 ff ff       	callq  400e70 <close@plt>
  402716:	b8 ff ff ff ff       	mov    $0xffffffff,%eax
  40271b:	e9 62 05 00 00       	jmpq   402c82 <submitr+0x733>
  402720:	48 c7 c6 ff ff ff ff 	mov    $0xffffffffffffffff,%rsi
  402727:	b8 00 00 00 00       	mov    $0x0,%eax
  40272c:	48 89 f1             	mov    %rsi,%rcx
  40272f:	4c 89 ef             	mov    %r13,%rdi
  402732:	f2 ae                	repnz scas %es:(%rdi),%al
  402734:	48 f7 d1             	not    %rcx
  402737:	48 89 ca             	mov    %rcx,%rdx
  40273a:	48 89 f1             	mov    %rsi,%rcx
  40273d:	4c 89 ff             	mov    %r15,%rdi
  402740:	f2 ae                	repnz scas %es:(%rdi),%al
  402742:	48 f7 d1             	not    %rcx
  402745:	49 89 c8             	mov    %rcx,%r8
  402748:	48 89 f1             	mov    %rsi,%rcx
  40274b:	4c 89 f7             	mov    %r14,%rdi
  40274e:	f2 ae                	repnz scas %es:(%rdi),%al
  402750:	48 f7 d1             	not    %rcx
  402753:	4d 8d 44 08 fe       	lea    -0x2(%r8,%rcx,1),%r8
  402758:	48 89 f1             	mov    %rsi,%rcx
  40275b:	48 8b 7c 24 08       	mov    0x8(%rsp),%rdi
  402760:	f2 ae                	repnz scas %es:(%rdi),%al
  402762:	48 89 c8             	mov    %rcx,%rax
  402765:	48 f7 d0             	not    %rax
  402768:	49 8d 4c 00 ff       	lea    -0x1(%r8,%rax,1),%rcx
  40276d:	48 8d 44 52 fd       	lea    -0x3(%rdx,%rdx,2),%rax
  402772:	48 8d 84 01 80 00 00 	lea    0x80(%rcx,%rax,1),%rax
  402779:	00 
  40277a:	48 3d 00 20 00 00    	cmp    $0x2000,%rax
  402780:	76 72                	jbe    4027f4 <submitr+0x2a5>
  402782:	48 b8 45 72 72 6f 72 	movabs $0x52203a726f727245,%rax
  402789:	3a 20 52 
  40278c:	48 89 03             	mov    %rax,(%rbx)
  40278f:	48 b8 65 73 75 6c 74 	movabs $0x747320746c757365,%rax
  402796:	20 73 74 
  402799:	48 89 43 08          	mov    %rax,0x8(%rbx)
  40279d:	48 b8 72 69 6e 67 20 	movabs $0x6f6f7420676e6972,%rax
  4027a4:	74 6f 6f 
  4027a7:	48 89 43 10          	mov    %rax,0x10(%rbx)
  4027ab:	48 b8 20 6c 61 72 67 	movabs $0x202e656772616c20,%rax
  4027b2:	65 2e 20 
  4027b5:	48 89 43 18          	mov    %rax,0x18(%rbx)
  4027b9:	48 b8 49 6e 63 72 65 	movabs $0x6573616572636e49,%rax
  4027c0:	61 73 65 
  4027c3:	48 89 43 20          	mov    %rax,0x20(%rbx)
  4027c7:	48 b8 20 53 55 42 4d 	movabs $0x5254494d42555320,%rax
  4027ce:	49 54 52 
  4027d1:	48 89 43 28          	mov    %rax,0x28(%rbx)
  4027d5:	48 b8 5f 4d 41 58 42 	movabs $0x46554258414d5f,%rax
  4027dc:	55 46 00 
  4027df:	48 89 43 30          	mov    %rax,0x30(%rbx)
  4027e3:	89 ef                	mov    %ebp,%edi
  4027e5:	e8 86 e6 ff ff       	callq  400e70 <close@plt>
  4027ea:	b8 ff ff ff ff       	mov    $0xffffffff,%eax
  4027ef:	e9 8e 04 00 00       	jmpq   402c82 <submitr+0x733>
  4027f4:	48 8d b4 24 20 40 00 	lea    0x4020(%rsp),%rsi
  4027fb:	00 
  4027fc:	b9 00 04 00 00       	mov    $0x400,%ecx
  402801:	b8 00 00 00 00       	mov    $0x0,%eax
  402806:	48 89 f7             	mov    %rsi,%rdi
  402809:	f3 48 ab             	rep stos %rax,%es:(%rdi)
  40280c:	4c 89 ef             	mov    %r13,%rdi
  40280f:	e8 f9 fa ff ff       	callq  40230d <urlencode>
  402814:	85 c0                	test   %eax,%eax
  402816:	0f 89 8a 00 00 00    	jns    4028a6 <submitr+0x357>
  40281c:	48 b8 45 72 72 6f 72 	movabs $0x52203a726f727245,%rax
  402823:	3a 20 52 
  402826:	48 89 03             	mov    %rax,(%rbx)
  402829:	48 b8 65 73 75 6c 74 	movabs $0x747320746c757365,%rax
  402830:	20 73 74 
  402833:	48 89 43 08          	mov    %rax,0x8(%rbx)
  402837:	48 b8 72 69 6e 67 20 	movabs $0x6e6f6320676e6972,%rax
  40283e:	63 6f 6e 
  402841:	48 89 43 10          	mov    %rax,0x10(%rbx)
  402845:	48 b8 74 61 69 6e 73 	movabs $0x6e6120736e696174,%rax
  40284c:	20 61 6e 
  40284f:	48 89 43 18          	mov    %rax,0x18(%rbx)
  402853:	48 b8 20 69 6c 6c 65 	movabs $0x6c6167656c6c6920,%rax
  40285a:	67 61 6c 
  40285d:	48 89 43 20          	mov    %rax,0x20(%rbx)
  402861:	48 b8 20 6f 72 20 75 	movabs $0x72706e7520726f20,%rax
  402868:	6e 70 72 
  40286b:	48 89 43 28          	mov    %rax,0x28(%rbx)
  40286f:	48 b8 69 6e 74 61 62 	movabs $0x20656c6261746e69,%rax
  402876:	6c 65 20 
  402879:	48 89 43 30          	mov    %rax,0x30(%rbx)
  40287d:	48 b8 63 68 61 72 61 	movabs $0x6574636172616863,%rax
  402884:	63 74 65 
  402887:	48 89 43 38          	mov    %rax,0x38(%rbx)
  40288b:	66 c7 43 40 72 2e    	movw   $0x2e72,0x40(%rbx)
  402891:	c6 43 42 00          	movb   $0x0,0x42(%rbx)
  402895:	89 ef                	mov    %ebp,%edi
  402897:	e8 d4 e5 ff ff       	callq  400e70 <close@plt>
  40289c:	b8 ff ff ff ff       	mov    $0xffffffff,%eax
  4028a1:	e9 dc 03 00 00       	jmpq   402c82 <submitr+0x733>
  4028a6:	4c 8d ac 24 20 60 00 	lea    0x6020(%rsp),%r13
  4028ad:	00 
  4028ae:	4d 89 e1             	mov    %r12,%r9
  4028b1:	4c 8d 84 24 20 40 00 	lea    0x4020(%rsp),%r8
  4028b8:	00 
  4028b9:	4c 89 f9             	mov    %r15,%rcx
  4028bc:	4c 89 f2             	mov    %r14,%rdx
  4028bf:	be 88 37 40 00       	mov    $0x403788,%esi
  4028c4:	4c 89 ef             	mov    %r13,%rdi
  4028c7:	b8 00 00 00 00       	mov    $0x0,%eax
  4028cc:	e8 bf e6 ff ff       	callq  400f90 <sprintf@plt>
  4028d1:	b8 00 00 00 00       	mov    $0x0,%eax
  4028d6:	48 c7 c1 ff ff ff ff 	mov    $0xffffffffffffffff,%rcx
  4028dd:	4c 89 ef             	mov    %r13,%rdi
  4028e0:	f2 ae                	repnz scas %es:(%rdi),%al
  4028e2:	48 f7 d1             	not    %rcx
  4028e5:	48 8d 51 ff          	lea    -0x1(%rcx),%rdx
  4028e9:	4c 89 ee             	mov    %r13,%rsi
  4028ec:	89 ef                	mov    %ebp,%edi
  4028ee:	e8 f0 fa ff ff       	callq  4023e3 <rio_writen>
  4028f3:	48 85 c0             	test   %rax,%rax
  4028f6:	79 6e                	jns    402966 <submitr+0x417>
  4028f8:	48 b8 45 72 72 6f 72 	movabs $0x43203a726f727245,%rax
  4028ff:	3a 20 43 
  402902:	48 89 03             	mov    %rax,(%rbx)
  402905:	48 b8 6c 69 65 6e 74 	movabs $0x6e7520746e65696c,%rax
  40290c:	20 75 6e 
  40290f:	48 89 43 08          	mov    %rax,0x8(%rbx)
  402913:	48 b8 61 62 6c 65 20 	movabs $0x206f7420656c6261,%rax
  40291a:	74 6f 20 
  40291d:	48 89 43 10          	mov    %rax,0x10(%rbx)
  402921:	48 b8 77 72 69 74 65 	movabs $0x6f74206574697277,%rax
  402928:	20 74 6f 
  40292b:	48 89 43 18          	mov    %rax,0x18(%rbx)
  40292f:	48 b8 20 74 68 65 20 	movabs $0x7365722065687420,%rax
  402936:	72 65 73 
  402939:	48 89 43 20          	mov    %rax,0x20(%rbx)
  40293d:	48 b8 75 6c 74 20 73 	movabs $0x7672657320746c75,%rax
  402944:	65 72 76 
  402947:	48 89 43 28          	mov    %rax,0x28(%rbx)
  40294b:	66 c7 43 30 65 72    	movw   $0x7265,0x30(%rbx)
  402951:	c6 43 32 00          	movb   $0x0,0x32(%rbx)
  402955:	89 ef                	mov    %ebp,%edi
  402957:	e8 14 e5 ff ff       	callq  400e70 <close@plt>
  40295c:	b8 ff ff ff ff       	mov    $0xffffffff,%eax
  402961:	e9 1c 03 00 00       	jmpq   402c82 <submitr+0x733>
  402966:	89 ee                	mov    %ebp,%esi
  402968:	48 8d bc 24 20 80 00 	lea    0x8020(%rsp),%rdi
  40296f:	00 
  402970:	e8 5d f9 ff ff       	callq  4022d2 <rio_readinitb>
  402975:	ba 00 20 00 00       	mov    $0x2000,%edx
  40297a:	48 8d b4 24 20 60 00 	lea    0x6020(%rsp),%rsi
  402981:	00 
  402982:	48 8d bc 24 20 80 00 	lea    0x8020(%rsp),%rdi
  402989:	00 
  40298a:	e8 3b fb ff ff       	callq  4024ca <rio_readlineb>
  40298f:	48 85 c0             	test   %rax,%rax
  402992:	7f 7d                	jg     402a11 <submitr+0x4c2>
  402994:	48 b8 45 72 72 6f 72 	movabs $0x43203a726f727245,%rax
  40299b:	3a 20 43 
  40299e:	48 89 03             	mov    %rax,(%rbx)
  4029a1:	48 b8 6c 69 65 6e 74 	movabs $0x6e7520746e65696c,%rax
  4029a8:	20 75 6e 
  4029ab:	48 89 43 08          	mov    %rax,0x8(%rbx)
  4029af:	48 b8 61 62 6c 65 20 	movabs $0x206f7420656c6261,%rax
  4029b6:	74 6f 20 
  4029b9:	48 89 43 10          	mov    %rax,0x10(%rbx)
  4029bd:	48 b8 72 65 61 64 20 	movabs $0x7269662064616572,%rax
  4029c4:	66 69 72 
  4029c7:	48 89 43 18          	mov    %rax,0x18(%rbx)
  4029cb:	48 b8 73 74 20 68 65 	movabs $0x6564616568207473,%rax
  4029d2:	61 64 65 
  4029d5:	48 89 43 20          	mov    %rax,0x20(%rbx)
  4029d9:	48 b8 72 20 66 72 6f 	movabs $0x72206d6f72662072,%rax
  4029e0:	6d 20 72 
  4029e3:	48 89 43 28          	mov    %rax,0x28(%rbx)
  4029e7:	48 b8 65 73 75 6c 74 	movabs $0x657320746c757365,%rax
  4029ee:	20 73 65 
  4029f1:	48 89 43 30          	mov    %rax,0x30(%rbx)
  4029f5:	c7 43 38 72 76 65 72 	movl   $0x72657672,0x38(%rbx)
  4029fc:	c6 43 3c 00          	movb   $0x0,0x3c(%rbx)
  402a00:	89 ef                	mov    %ebp,%edi
  402a02:	e8 69 e4 ff ff       	callq  400e70 <close@plt>
  402a07:	b8 ff ff ff ff       	mov    $0xffffffff,%eax
  402a0c:	e9 71 02 00 00       	jmpq   402c82 <submitr+0x733>
  402a11:	4c 8d 44 24 10       	lea    0x10(%rsp),%r8
  402a16:	48 8d 8c 24 1c 20 00 	lea    0x201c(%rsp),%rcx
  402a1d:	00 
  402a1e:	48 8d 94 24 20 20 00 	lea    0x2020(%rsp),%rdx
  402a25:	00 
  402a26:	be ff 37 40 00       	mov    $0x4037ff,%esi
  402a2b:	48 8d bc 24 20 60 00 	lea    0x6020(%rsp),%rdi
  402a32:	00 
  402a33:	b8 00 00 00 00       	mov    $0x0,%eax
  402a38:	e8 e3 e4 ff ff       	callq  400f20 <__isoc99_sscanf@plt>
  402a3d:	e9 98 00 00 00       	jmpq   402ada <submitr+0x58b>
  402a42:	ba 00 20 00 00       	mov    $0x2000,%edx
  402a47:	48 8d b4 24 20 60 00 	lea    0x6020(%rsp),%rsi
  402a4e:	00 
  402a4f:	48 8d bc 24 20 80 00 	lea    0x8020(%rsp),%rdi
  402a56:	00 
  402a57:	e8 6e fa ff ff       	callq  4024ca <rio_readlineb>
  402a5c:	48 85 c0             	test   %rax,%rax
  402a5f:	7f 79                	jg     402ada <submitr+0x58b>
  402a61:	48 b8 45 72 72 6f 72 	movabs $0x43203a726f727245,%rax
  402a68:	3a 20 43 
  402a6b:	48 89 03             	mov    %rax,(%rbx)
  402a6e:	48 b8 6c 69 65 6e 74 	movabs $0x6e7520746e65696c,%rax
  402a75:	20 75 6e 
  402a78:	48 89 43 08          	mov    %rax,0x8(%rbx)
  402a7c:	48 b8 61 62 6c 65 20 	movabs $0x206f7420656c6261,%rax
  402a83:	74 6f 20 
  402a86:	48 89 43 10          	mov    %rax,0x10(%rbx)
  402a8a:	48 b8 72 65 61 64 20 	movabs $0x6165682064616572,%rax
  402a91:	68 65 61 
  402a94:	48 89 43 18          	mov    %rax,0x18(%rbx)
  402a98:	48 b8 64 65 72 73 20 	movabs $0x6f72662073726564,%rax
  402a9f:	66 72 6f 
  402aa2:	48 89 43 20          	mov    %rax,0x20(%rbx)
  402aa6:	48 b8 6d 20 74 68 65 	movabs $0x657220656874206d,%rax
  402aad:	20 72 65 
  402ab0:	48 89 43 28          	mov    %rax,0x28(%rbx)
  402ab4:	48 b8 73 75 6c 74 20 	movabs $0x72657320746c7573,%rax
  402abb:	73 65 72 
  402abe:	48 89 43 30          	mov    %rax,0x30(%rbx)
  402ac2:	c7 43 38 76 65 72 00 	movl   $0x726576,0x38(%rbx)
  402ac9:	89 ef                	mov    %ebp,%edi
  402acb:	e8 a0 e3 ff ff       	callq  400e70 <close@plt>
  402ad0:	b8 ff ff ff ff       	mov    $0xffffffff,%eax
  402ad5:	e9 a8 01 00 00       	jmpq   402c82 <submitr+0x733>
  402ada:	0f b6 94 24 20 60 00 	movzbl 0x6020(%rsp),%edx
  402ae1:	00 
  402ae2:	b8 0d 00 00 00       	mov    $0xd,%eax
  402ae7:	29 d0                	sub    %edx,%eax
  402ae9:	75 1b                	jne    402b06 <submitr+0x5b7>
  402aeb:	0f b6 94 24 21 60 00 	movzbl 0x6021(%rsp),%edx
  402af2:	00 
  402af3:	b8 0a 00 00 00       	mov    $0xa,%eax
  402af8:	29 d0                	sub    %edx,%eax
  402afa:	75 0a                	jne    402b06 <submitr+0x5b7>
  402afc:	0f b6 84 24 22 60 00 	movzbl 0x6022(%rsp),%eax
  402b03:	00 
  402b04:	f7 d8                	neg    %eax
  402b06:	85 c0                	test   %eax,%eax
  402b08:	0f 85 34 ff ff ff    	jne    402a42 <submitr+0x4f3>
  402b0e:	ba 00 20 00 00       	mov    $0x2000,%edx
  402b13:	48 8d b4 24 20 60 00 	lea    0x6020(%rsp),%rsi
  402b1a:	00 
  402b1b:	48 8d bc 24 20 80 00 	lea    0x8020(%rsp),%rdi
  402b22:	00 
  402b23:	e8 a2 f9 ff ff       	callq  4024ca <rio_readlineb>
  402b28:	48 85 c0             	test   %rax,%rax
  402b2b:	0f 8f 83 00 00 00    	jg     402bb4 <submitr+0x665>
  402b31:	48 b8 45 72 72 6f 72 	movabs $0x43203a726f727245,%rax
  402b38:	3a 20 43 
  402b3b:	48 89 03             	mov    %rax,(%rbx)
  402b3e:	48 b8 6c 69 65 6e 74 	movabs $0x6e7520746e65696c,%rax
  402b45:	20 75 6e 
  402b48:	48 89 43 08          	mov    %rax,0x8(%rbx)
  402b4c:	48 b8 61 62 6c 65 20 	movabs $0x206f7420656c6261,%rax
  402b53:	74 6f 20 
  402b56:	48 89 43 10          	mov    %rax,0x10(%rbx)
  402b5a:	48 b8 72 65 61 64 20 	movabs $0x6174732064616572,%rax
  402b61:	73 74 61 
  402b64:	48 89 43 18          	mov    %rax,0x18(%rbx)
  402b68:	48 b8 74 75 73 20 6d 	movabs $0x7373656d20737574,%rax
  402b6f:	65 73 73 
  402b72:	48 89 43 20          	mov    %rax,0x20(%rbx)
  402b76:	48 b8 61 67 65 20 66 	movabs $0x6d6f726620656761,%rax
  402b7d:	72 6f 6d 
  402b80:	48 89 43 28          	mov    %rax,0x28(%rbx)
  402b84:	48 b8 20 72 65 73 75 	movabs $0x20746c7573657220,%rax
  402b8b:	6c 74 20 
  402b8e:	48 89 43 30          	mov    %rax,0x30(%rbx)
  402b92:	c7 43 38 73 65 72 76 	movl   $0x76726573,0x38(%rbx)
  402b99:	66 c7 43 3c 65 72    	movw   $0x7265,0x3c(%rbx)
  402b9f:	c6 43 3e 00          	movb   $0x0,0x3e(%rbx)
  402ba3:	89 ef                	mov    %ebp,%edi
  402ba5:	e8 c6 e2 ff ff       	callq  400e70 <close@plt>
  402baa:	b8 ff ff ff ff       	mov    $0xffffffff,%eax
  402baf:	e9 ce 00 00 00       	jmpq   402c82 <submitr+0x733>
  402bb4:	8b 94 24 1c 20 00 00 	mov    0x201c(%rsp),%edx
  402bbb:	81 fa c8 00 00 00    	cmp    $0xc8,%edx
  402bc1:	74 28                	je     402beb <submitr+0x69c>
  402bc3:	48 8d 4c 24 10       	lea    0x10(%rsp),%rcx
  402bc8:	be c8 37 40 00       	mov    $0x4037c8,%esi
  402bcd:	48 89 df             	mov    %rbx,%rdi
  402bd0:	b8 00 00 00 00       	mov    $0x0,%eax
  402bd5:	e8 b6 e3 ff ff       	callq  400f90 <sprintf@plt>
  402bda:	89 ef                	mov    %ebp,%edi
  402bdc:	e8 8f e2 ff ff       	callq  400e70 <close@plt>
  402be1:	b8 ff ff ff ff       	mov    $0xffffffff,%eax
  402be6:	e9 97 00 00 00       	jmpq   402c82 <submitr+0x733>
  402beb:	48 8d b4 24 20 60 00 	lea    0x6020(%rsp),%rsi
  402bf2:	00 
  402bf3:	48 89 df             	mov    %rbx,%rdi
  402bf6:	e8 05 e2 ff ff       	callq  400e00 <strcpy@plt>
  402bfb:	89 ef                	mov    %ebp,%edi
  402bfd:	e8 6e e2 ff ff       	callq  400e70 <close@plt>
  402c02:	0f b6 03             	movzbl (%rbx),%eax
  402c05:	ba 4f 00 00 00       	mov    $0x4f,%edx
  402c0a:	29 c2                	sub    %eax,%edx
  402c0c:	75 22                	jne    402c30 <submitr+0x6e1>
  402c0e:	0f b6 4b 01          	movzbl 0x1(%rbx),%ecx
  402c12:	b8 4b 00 00 00       	mov    $0x4b,%eax
  402c17:	29 c8                	sub    %ecx,%eax
  402c19:	75 17                	jne    402c32 <submitr+0x6e3>
  402c1b:	0f b6 4b 02          	movzbl 0x2(%rbx),%ecx
  402c1f:	b8 0a 00 00 00       	mov    $0xa,%eax
  402c24:	29 c8                	sub    %ecx,%eax
  402c26:	75 0a                	jne    402c32 <submitr+0x6e3>
  402c28:	0f b6 43 03          	movzbl 0x3(%rbx),%eax
  402c2c:	f7 d8                	neg    %eax
  402c2e:	eb 02                	jmp    402c32 <submitr+0x6e3>
  402c30:	89 d0                	mov    %edx,%eax
  402c32:	85 c0                	test   %eax,%eax
  402c34:	74 40                	je     402c76 <submitr+0x727>
  402c36:	bf 10 38 40 00       	mov    $0x403810,%edi
  402c3b:	b9 05 00 00 00       	mov    $0x5,%ecx
  402c40:	48 89 de             	mov    %rbx,%rsi
  402c43:	f3 a6                	repz cmpsb %es:(%rdi),%ds:(%rsi)
  402c45:	0f 97 c0             	seta   %al
  402c48:	0f 92 c1             	setb   %cl
  402c4b:	29 c8                	sub    %ecx,%eax
  402c4d:	0f be c0             	movsbl %al,%eax
  402c50:	85 c0                	test   %eax,%eax
  402c52:	74 2e                	je     402c82 <submitr+0x733>
  402c54:	85 d2                	test   %edx,%edx
  402c56:	75 13                	jne    402c6b <submitr+0x71c>
  402c58:	0f b6 43 01          	movzbl 0x1(%rbx),%eax
  402c5c:	ba 4b 00 00 00       	mov    $0x4b,%edx
  402c61:	29 c2                	sub    %eax,%edx
  402c63:	75 06                	jne    402c6b <submitr+0x71c>
  402c65:	0f b6 53 02          	movzbl 0x2(%rbx),%edx
  402c69:	f7 da                	neg    %edx
  402c6b:	85 d2                	test   %edx,%edx
  402c6d:	75 0e                	jne    402c7d <submitr+0x72e>
  402c6f:	b8 00 00 00 00       	mov    $0x0,%eax
  402c74:	eb 0c                	jmp    402c82 <submitr+0x733>
  402c76:	b8 00 00 00 00       	mov    $0x0,%eax
  402c7b:	eb 05                	jmp    402c82 <submitr+0x733>
  402c7d:	b8 ff ff ff ff       	mov    $0xffffffff,%eax
  402c82:	48 81 c4 48 a0 00 00 	add    $0xa048,%rsp
  402c89:	5b                   	pop    %rbx
  402c8a:	5d                   	pop    %rbp
  402c8b:	41 5c                	pop    %r12
  402c8d:	41 5d                	pop    %r13
  402c8f:	41 5e                	pop    %r14
  402c91:	41 5f                	pop    %r15
  402c93:	c3                   	retq   

0000000000402c94 <init_timeout>:
  402c94:	85 ff                	test   %edi,%edi
  402c96:	74 23                	je     402cbb <init_timeout+0x27>
  402c98:	53                   	push   %rbx
  402c99:	89 fb                	mov    %edi,%ebx
  402c9b:	85 ff                	test   %edi,%edi
  402c9d:	79 05                	jns    402ca4 <init_timeout+0x10>
  402c9f:	bb 00 00 00 00       	mov    $0x0,%ebx
  402ca4:	be e4 22 40 00       	mov    $0x4022e4,%esi
  402ca9:	bf 0e 00 00 00       	mov    $0xe,%edi
  402cae:	e8 ed e1 ff ff       	callq  400ea0 <signal@plt>
  402cb3:	89 df                	mov    %ebx,%edi
  402cb5:	e8 a6 e1 ff ff       	callq  400e60 <alarm@plt>
  402cba:	5b                   	pop    %rbx
  402cbb:	f3 c3                	repz retq 

0000000000402cbd <init_driver>:
  402cbd:	55                   	push   %rbp
  402cbe:	53                   	push   %rbx
  402cbf:	48 83 ec 18          	sub    $0x18,%rsp
  402cc3:	48 89 fd             	mov    %rdi,%rbp
  402cc6:	be 01 00 00 00       	mov    $0x1,%esi
  402ccb:	bf 0d 00 00 00       	mov    $0xd,%edi
  402cd0:	e8 cb e1 ff ff       	callq  400ea0 <signal@plt>
  402cd5:	be 01 00 00 00       	mov    $0x1,%esi
  402cda:	bf 1d 00 00 00       	mov    $0x1d,%edi
  402cdf:	e8 bc e1 ff ff       	callq  400ea0 <signal@plt>
  402ce4:	be 01 00 00 00       	mov    $0x1,%esi
  402ce9:	bf 1d 00 00 00       	mov    $0x1d,%edi
  402cee:	e8 ad e1 ff ff       	callq  400ea0 <signal@plt>
  402cf3:	ba 00 00 00 00       	mov    $0x0,%edx
  402cf8:	be 01 00 00 00       	mov    $0x1,%esi
  402cfd:	bf 02 00 00 00       	mov    $0x2,%edi
  402d02:	e8 b9 e2 ff ff       	callq  400fc0 <socket@plt>
  402d07:	85 c0                	test   %eax,%eax
  402d09:	79 4f                	jns    402d5a <init_driver+0x9d>
  402d0b:	48 b8 45 72 72 6f 72 	movabs $0x43203a726f727245,%rax
  402d12:	3a 20 43 
  402d15:	48 89 45 00          	mov    %rax,0x0(%rbp)
  402d19:	48 b8 6c 69 65 6e 74 	movabs $0x6e7520746e65696c,%rax
  402d20:	20 75 6e 
  402d23:	48 89 45 08          	mov    %rax,0x8(%rbp)
  402d27:	48 b8 61 62 6c 65 20 	movabs $0x206f7420656c6261,%rax
  402d2e:	74 6f 20 
  402d31:	48 89 45 10          	mov    %rax,0x10(%rbp)
  402d35:	48 b8 63 72 65 61 74 	movabs $0x7320657461657263,%rax
  402d3c:	65 20 73 
  402d3f:	48 89 45 18          	mov    %rax,0x18(%rbp)
  402d43:	c7 45 20 6f 63 6b 65 	movl   $0x656b636f,0x20(%rbp)
  402d4a:	66 c7 45 24 74 00    	movw   $0x74,0x24(%rbp)
  402d50:	b8 ff ff ff ff       	mov    $0xffffffff,%eax
  402d55:	e9 25 01 00 00       	jmpq   402e7f <init_driver+0x1c2>
  402d5a:	89 c3                	mov    %eax,%ebx
  402d5c:	bf 15 38 40 00       	mov    $0x403815,%edi
  402d61:	e8 4a e1 ff ff       	callq  400eb0 <gethostbyname@plt>
  402d66:	48 85 c0             	test   %rax,%rax
  402d69:	75 68                	jne    402dd3 <init_driver+0x116>
  402d6b:	48 b8 45 72 72 6f 72 	movabs $0x44203a726f727245,%rax
  402d72:	3a 20 44 
  402d75:	48 89 45 00          	mov    %rax,0x0(%rbp)
  402d79:	48 b8 4e 53 20 69 73 	movabs $0x6e7520736920534e,%rax
  402d80:	20 75 6e 
  402d83:	48 89 45 08          	mov    %rax,0x8(%rbp)
  402d87:	48 b8 61 62 6c 65 20 	movabs $0x206f7420656c6261,%rax
  402d8e:	74 6f 20 
  402d91:	48 89 45 10          	mov    %rax,0x10(%rbp)
  402d95:	48 b8 72 65 73 6f 6c 	movabs $0x2065766c6f736572,%rax
  402d9c:	76 65 20 
  402d9f:	48 89 45 18          	mov    %rax,0x18(%rbp)
  402da3:	48 b8 73 65 72 76 65 	movabs $0x6120726576726573,%rax
  402daa:	72 20 61 
  402dad:	48 89 45 20          	mov    %rax,0x20(%rbp)
  402db1:	c7 45 28 64 64 72 65 	movl   $0x65726464,0x28(%rbp)
  402db8:	66 c7 45 2c 73 73    	movw   $0x7373,0x2c(%rbp)
  402dbe:	c6 45 2e 00          	movb   $0x0,0x2e(%rbp)
  402dc2:	89 df                	mov    %ebx,%edi
  402dc4:	e8 a7 e0 ff ff       	callq  400e70 <close@plt>
  402dc9:	b8 ff ff ff ff       	mov    $0xffffffff,%eax
  402dce:	e9 ac 00 00 00       	jmpq   402e7f <init_driver+0x1c2>
  402dd3:	48 c7 04 24 00 00 00 	movq   $0x0,(%rsp)
  402dda:	00 
  402ddb:	48 c7 44 24 08 00 00 	movq   $0x0,0x8(%rsp)
  402de2:	00 00 
  402de4:	66 c7 04 24 02 00    	movw   $0x2,(%rsp)
  402dea:	48 8b 48 18          	mov    0x18(%rax),%rcx
  402dee:	48 63 50 14          	movslq 0x14(%rax),%rdx
  402df2:	48 8d 74 24 04       	lea    0x4(%rsp),%rsi
  402df7:	48 8b 39             	mov    (%rcx),%rdi
  402dfa:	e8 41 e1 ff ff       	callq  400f40 <bcopy@plt>
  402dff:	66 c7 44 24 02 3c 9a 	movw   $0x9a3c,0x2(%rsp)
  402e06:	ba 10 00 00 00       	mov    $0x10,%edx
  402e0b:	48 89 e6             	mov    %rsp,%rsi
  402e0e:	89 df                	mov    %ebx,%edi
  402e10:	e8 9b e1 ff ff       	callq  400fb0 <connect@plt>
  402e15:	85 c0                	test   %eax,%eax
  402e17:	79 50                	jns    402e69 <init_driver+0x1ac>
  402e19:	48 b8 45 72 72 6f 72 	movabs $0x55203a726f727245,%rax
  402e20:	3a 20 55 
  402e23:	48 89 45 00          	mov    %rax,0x0(%rbp)
  402e27:	48 b8 6e 61 62 6c 65 	movabs $0x6f7420656c62616e,%rax
  402e2e:	20 74 6f 
  402e31:	48 89 45 08          	mov    %rax,0x8(%rbp)
  402e35:	48 b8 20 63 6f 6e 6e 	movabs $0x7463656e6e6f6320,%rax
  402e3c:	65 63 74 
  402e3f:	48 89 45 10          	mov    %rax,0x10(%rbp)
  402e43:	48 b8 20 74 6f 20 73 	movabs $0x76726573206f7420,%rax
  402e4a:	65 72 76 
  402e4d:	48 89 45 18          	mov    %rax,0x18(%rbp)
  402e51:	66 c7 45 20 65 72    	movw   $0x7265,0x20(%rbp)
  402e57:	c6 45 22 00          	movb   $0x0,0x22(%rbp)
  402e5b:	89 df                	mov    %ebx,%edi
  402e5d:	e8 0e e0 ff ff       	callq  400e70 <close@plt>
  402e62:	b8 ff ff ff ff       	mov    $0xffffffff,%eax
  402e67:	eb 16                	jmp    402e7f <init_driver+0x1c2>
  402e69:	89 df                	mov    %ebx,%edi
  402e6b:	e8 00 e0 ff ff       	callq  400e70 <close@plt>
  402e70:	66 c7 45 00 4f 4b    	movw   $0x4b4f,0x0(%rbp)
  402e76:	c6 45 02 00          	movb   $0x0,0x2(%rbp)
  402e7a:	b8 00 00 00 00       	mov    $0x0,%eax
  402e7f:	48 83 c4 18          	add    $0x18,%rsp
  402e83:	5b                   	pop    %rbx
  402e84:	5d                   	pop    %rbp
  402e85:	c3                   	retq   

0000000000402e86 <driver_post>:
  402e86:	53                   	push   %rbx
  402e87:	4c 89 cb             	mov    %r9,%rbx
  402e8a:	45 85 c0             	test   %r8d,%r8d
  402e8d:	74 22                	je     402eb1 <driver_post+0x2b>
  402e8f:	48 89 ce             	mov    %rcx,%rsi
  402e92:	bf 2d 38 40 00       	mov    $0x40382d,%edi
  402e97:	b8 00 00 00 00       	mov    $0x0,%eax
  402e9c:	e8 9f df ff ff       	callq  400e40 <printf@plt>
  402ea1:	66 c7 03 4f 4b       	movw   $0x4b4f,(%rbx)
  402ea6:	c6 43 02 00          	movb   $0x0,0x2(%rbx)
  402eaa:	b8 00 00 00 00       	mov    $0x0,%eax
  402eaf:	eb 3f                	jmp    402ef0 <driver_post+0x6a>
  402eb1:	48 85 ff             	test   %rdi,%rdi
  402eb4:	74 2c                	je     402ee2 <driver_post+0x5c>
  402eb6:	80 3f 00             	cmpb   $0x0,(%rdi)
  402eb9:	74 27                	je     402ee2 <driver_post+0x5c>
  402ebb:	48 83 ec 08          	sub    $0x8,%rsp
  402ebf:	41 51                	push   %r9
  402ec1:	49 89 c9             	mov    %rcx,%r9
  402ec4:	49 89 d0             	mov    %rdx,%r8
  402ec7:	48 89 f9             	mov    %rdi,%rcx
  402eca:	48 89 f2             	mov    %rsi,%rdx
  402ecd:	be 9a 3c 00 00       	mov    $0x3c9a,%esi
  402ed2:	bf 15 38 40 00       	mov    $0x403815,%edi
  402ed7:	e8 73 f6 ff ff       	callq  40254f <submitr>
  402edc:	48 83 c4 10          	add    $0x10,%rsp
  402ee0:	eb 0e                	jmp    402ef0 <driver_post+0x6a>
  402ee2:	66 c7 03 4f 4b       	movw   $0x4b4f,(%rbx)
  402ee7:	c6 43 02 00          	movb   $0x0,0x2(%rbx)
  402eeb:	b8 00 00 00 00       	mov    $0x0,%eax
  402ef0:	5b                   	pop    %rbx
  402ef1:	c3                   	retq   

0000000000402ef2 <check>:
  402ef2:	89 f8                	mov    %edi,%eax
  402ef4:	c1 e8 1c             	shr    $0x1c,%eax
  402ef7:	85 c0                	test   %eax,%eax
  402ef9:	74 1d                	je     402f18 <check+0x26>
  402efb:	b9 00 00 00 00       	mov    $0x0,%ecx
  402f00:	eb 0b                	jmp    402f0d <check+0x1b>
  402f02:	89 f8                	mov    %edi,%eax
  402f04:	d3 e8                	shr    %cl,%eax
  402f06:	3c 0a                	cmp    $0xa,%al
  402f08:	74 14                	je     402f1e <check+0x2c>
  402f0a:	83 c1 08             	add    $0x8,%ecx
  402f0d:	83 f9 1f             	cmp    $0x1f,%ecx
  402f10:	7e f0                	jle    402f02 <check+0x10>
  402f12:	b8 01 00 00 00       	mov    $0x1,%eax
  402f17:	c3                   	retq   
  402f18:	b8 00 00 00 00       	mov    $0x0,%eax
  402f1d:	c3                   	retq   
  402f1e:	b8 00 00 00 00       	mov    $0x0,%eax
  402f23:	c3                   	retq   

0000000000402f24 <gencookie>:
  402f24:	53                   	push   %rbx
  402f25:	83 c7 01             	add    $0x1,%edi
  402f28:	e8 b3 de ff ff       	callq  400de0 <srandom@plt>
  402f2d:	e8 ce df ff ff       	callq  400f00 <random@plt>
  402f32:	89 c3                	mov    %eax,%ebx
  402f34:	89 c7                	mov    %eax,%edi
  402f36:	e8 b7 ff ff ff       	callq  402ef2 <check>
  402f3b:	85 c0                	test   %eax,%eax
  402f3d:	74 ee                	je     402f2d <gencookie+0x9>
  402f3f:	89 d8                	mov    %ebx,%eax
  402f41:	5b                   	pop    %rbx
  402f42:	c3                   	retq   
  402f43:	66 2e 0f 1f 84 00 00 	nopw   %cs:0x0(%rax,%rax,1)
  402f4a:	00 00 00 
  402f4d:	0f 1f 00             	nopl   (%rax)

0000000000402f50 <__libc_csu_init>:
  402f50:	41 57                	push   %r15
  402f52:	41 56                	push   %r14
  402f54:	41 89 ff             	mov    %edi,%r15d
  402f57:	41 55                	push   %r13
  402f59:	41 54                	push   %r12
  402f5b:	4c 8d 25 c6 1e 20 00 	lea    0x201ec6(%rip),%r12        # 604e28 <__CTOR_LIST__>
  402f62:	55                   	push   %rbp
  402f63:	48 8d 2d be 1e 20 00 	lea    0x201ebe(%rip),%rbp        # 604e28 <__CTOR_LIST__>
  402f6a:	53                   	push   %rbx
  402f6b:	49 89 f6             	mov    %rsi,%r14
  402f6e:	49 89 d5             	mov    %rdx,%r13
  402f71:	4c 29 e5             	sub    %r12,%rbp
  402f74:	48 83 ec 08          	sub    $0x8,%rsp
  402f78:	48 c1 fd 03          	sar    $0x3,%rbp
  402f7c:	e8 ff dd ff ff       	callq  400d80 <_init>
  402f81:	48 85 ed             	test   %rbp,%rbp
  402f84:	74 20                	je     402fa6 <__libc_csu_init+0x56>
  402f86:	31 db                	xor    %ebx,%ebx
  402f88:	0f 1f 84 00 00 00 00 	nopl   0x0(%rax,%rax,1)
  402f8f:	00 
  402f90:	4c 89 ea             	mov    %r13,%rdx
  402f93:	4c 89 f6             	mov    %r14,%rsi
  402f96:	44 89 ff             	mov    %r15d,%edi
  402f99:	41 ff 14 dc          	callq  *(%r12,%rbx,8)
  402f9d:	48 83 c3 01          	add    $0x1,%rbx
  402fa1:	48 39 eb             	cmp    %rbp,%rbx
  402fa4:	75 ea                	jne    402f90 <__libc_csu_init+0x40>
  402fa6:	48 83 c4 08          	add    $0x8,%rsp
  402faa:	5b                   	pop    %rbx
  402fab:	5d                   	pop    %rbp
  402fac:	41 5c                	pop    %r12
  402fae:	41 5d                	pop    %r13
  402fb0:	41 5e                	pop    %r14
  402fb2:	41 5f                	pop    %r15
  402fb4:	c3                   	retq   
  402fb5:	90                   	nop
  402fb6:	66 2e 0f 1f 84 00 00 	nopw   %cs:0x0(%rax,%rax,1)
  402fbd:	00 00 00 

0000000000402fc0 <__libc_csu_fini>:
  402fc0:	f3 c3                	repz retq 
  402fc2:	66 2e 0f 1f 84 00 00 	nopw   %cs:0x0(%rax,%rax,1)
  402fc9:	00 00 00 
  402fcc:	0f 1f 40 00          	nopl   0x0(%rax)

0000000000402fd0 <__do_global_ctors_aux>:
  402fd0:	48 8b 05 51 1e 20 00 	mov    0x201e51(%rip),%rax        # 604e28 <__CTOR_LIST__>
  402fd7:	48 83 f8 ff          	cmp    $0xffffffffffffffff,%rax
  402fdb:	74 28                	je     403005 <__do_global_ctors_aux+0x35>
  402fdd:	55                   	push   %rbp
  402fde:	48 89 e5             	mov    %rsp,%rbp
  402fe1:	53                   	push   %rbx
  402fe2:	48 8d 1d 3f 1e 20 00 	lea    0x201e3f(%rip),%rbx        # 604e28 <__CTOR_LIST__>
  402fe9:	48 83 ec 08          	sub    $0x8,%rsp
  402fed:	0f 1f 00             	nopl   (%rax)
  402ff0:	48 83 eb 08          	sub    $0x8,%rbx
  402ff4:	ff d0                	callq  *%rax
  402ff6:	48 8b 03             	mov    (%rbx),%rax
  402ff9:	48 83 f8 ff          	cmp    $0xffffffffffffffff,%rax
  402ffd:	75 f1                	jne    402ff0 <__do_global_ctors_aux+0x20>
  402fff:	48 83 c4 08          	add    $0x8,%rsp
  403003:	5b                   	pop    %rbx
  403004:	5d                   	pop    %rbp
  403005:	f3 c3                	repz retq 

Desmontagem da seção .fini:

0000000000403008 <_fini>:
  403008:	48 83 ec 08          	sub    $0x8,%rsp
  40300c:	e8 8f e0 ff ff       	callq  4010a0 <__do_global_dtors_aux>
  403011:	48 83 c4 08          	add    $0x8,%rsp
  403015:	c3                   	retq   
