
ctarget: formato do arquivo elf64-x86-64


Desmontagem da seção .init:

0000000000400d80 <_init>:
  400d80:	48 83 ec 08          	sub    $0x8,%rsp
  400d84:	48 8b 05 5d 32 20 00 	mov    0x20325d(%rip),%rax        # 603fe8 <_DYNAMIC+0x198>
  400d8b:	48 85 c0             	test   %rax,%rax
  400d8e:	74 05                	je     400d95 <_init+0x15>
  400d90:	e8 3b 02 00 00       	callq  400fd0 <socket@plt+0x10>
  400d95:	e8 76 03 00 00       	callq  401110 <frame_dummy>
  400d9a:	e8 01 21 00 00       	callq  402ea0 <__do_global_ctors_aux>
  400d9f:	48 83 c4 08          	add    $0x8,%rsp
  400da3:	c3                   	retq   

Desmontagem da seção .plt:

0000000000400db0 <strcasecmp@plt-0x10>:
  400db0:	ff 35 52 32 20 00    	pushq  0x203252(%rip)        # 604008 <_GLOBAL_OFFSET_TABLE_+0x8>
  400db6:	ff 25 54 32 20 00    	jmpq   *0x203254(%rip)        # 604010 <_GLOBAL_OFFSET_TABLE_+0x10>
  400dbc:	0f 1f 40 00          	nopl   0x0(%rax)

0000000000400dc0 <strcasecmp@plt>:
  400dc0:	ff 25 52 32 20 00    	jmpq   *0x203252(%rip)        # 604018 <_GLOBAL_OFFSET_TABLE_+0x18>
  400dc6:	68 00 00 00 00       	pushq  $0x0
  400dcb:	e9 e0 ff ff ff       	jmpq   400db0 <_init+0x30>

0000000000400dd0 <__errno_location@plt>:
  400dd0:	ff 25 4a 32 20 00    	jmpq   *0x20324a(%rip)        # 604020 <_GLOBAL_OFFSET_TABLE_+0x20>
  400dd6:	68 01 00 00 00       	pushq  $0x1
  400ddb:	e9 d0 ff ff ff       	jmpq   400db0 <_init+0x30>

0000000000400de0 <srandom@plt>:
  400de0:	ff 25 42 32 20 00    	jmpq   *0x203242(%rip)        # 604028 <_GLOBAL_OFFSET_TABLE_+0x28>
  400de6:	68 02 00 00 00       	pushq  $0x2
  400deb:	e9 c0 ff ff ff       	jmpq   400db0 <_init+0x30>

0000000000400df0 <strncmp@plt>:
  400df0:	ff 25 3a 32 20 00    	jmpq   *0x20323a(%rip)        # 604030 <_GLOBAL_OFFSET_TABLE_+0x30>
  400df6:	68 03 00 00 00       	pushq  $0x3
  400dfb:	e9 b0 ff ff ff       	jmpq   400db0 <_init+0x30>

0000000000400e00 <strcpy@plt>:
  400e00:	ff 25 32 32 20 00    	jmpq   *0x203232(%rip)        # 604038 <_GLOBAL_OFFSET_TABLE_+0x38>
  400e06:	68 04 00 00 00       	pushq  $0x4
  400e0b:	e9 a0 ff ff ff       	jmpq   400db0 <_init+0x30>

0000000000400e10 <puts@plt>:
  400e10:	ff 25 2a 32 20 00    	jmpq   *0x20322a(%rip)        # 604040 <_GLOBAL_OFFSET_TABLE_+0x40>
  400e16:	68 05 00 00 00       	pushq  $0x5
  400e1b:	e9 90 ff ff ff       	jmpq   400db0 <_init+0x30>

0000000000400e20 <write@plt>:
  400e20:	ff 25 22 32 20 00    	jmpq   *0x203222(%rip)        # 604048 <_GLOBAL_OFFSET_TABLE_+0x48>
  400e26:	68 06 00 00 00       	pushq  $0x6
  400e2b:	e9 80 ff ff ff       	jmpq   400db0 <_init+0x30>

0000000000400e30 <mmap@plt>:
  400e30:	ff 25 1a 32 20 00    	jmpq   *0x20321a(%rip)        # 604050 <_GLOBAL_OFFSET_TABLE_+0x50>
  400e36:	68 07 00 00 00       	pushq  $0x7
  400e3b:	e9 70 ff ff ff       	jmpq   400db0 <_init+0x30>

0000000000400e40 <printf@plt>:
  400e40:	ff 25 12 32 20 00    	jmpq   *0x203212(%rip)        # 604058 <_GLOBAL_OFFSET_TABLE_+0x58>
  400e46:	68 08 00 00 00       	pushq  $0x8
  400e4b:	e9 60 ff ff ff       	jmpq   400db0 <_init+0x30>

0000000000400e50 <memset@plt>:
  400e50:	ff 25 0a 32 20 00    	jmpq   *0x20320a(%rip)        # 604060 <_GLOBAL_OFFSET_TABLE_+0x60>
  400e56:	68 09 00 00 00       	pushq  $0x9
  400e5b:	e9 50 ff ff ff       	jmpq   400db0 <_init+0x30>

0000000000400e60 <alarm@plt>:
  400e60:	ff 25 02 32 20 00    	jmpq   *0x203202(%rip)        # 604068 <_GLOBAL_OFFSET_TABLE_+0x68>
  400e66:	68 0a 00 00 00       	pushq  $0xa
  400e6b:	e9 40 ff ff ff       	jmpq   400db0 <_init+0x30>

0000000000400e70 <close@plt>:
  400e70:	ff 25 fa 31 20 00    	jmpq   *0x2031fa(%rip)        # 604070 <_GLOBAL_OFFSET_TABLE_+0x70>
  400e76:	68 0b 00 00 00       	pushq  $0xb
  400e7b:	e9 30 ff ff ff       	jmpq   400db0 <_init+0x30>

0000000000400e80 <read@plt>:
  400e80:	ff 25 f2 31 20 00    	jmpq   *0x2031f2(%rip)        # 604078 <_GLOBAL_OFFSET_TABLE_+0x78>
  400e86:	68 0c 00 00 00       	pushq  $0xc
  400e8b:	e9 20 ff ff ff       	jmpq   400db0 <_init+0x30>

0000000000400e90 <__libc_start_main@plt>:
  400e90:	ff 25 ea 31 20 00    	jmpq   *0x2031ea(%rip)        # 604080 <_GLOBAL_OFFSET_TABLE_+0x80>
  400e96:	68 0d 00 00 00       	pushq  $0xd
  400e9b:	e9 10 ff ff ff       	jmpq   400db0 <_init+0x30>

0000000000400ea0 <signal@plt>:
  400ea0:	ff 25 e2 31 20 00    	jmpq   *0x2031e2(%rip)        # 604088 <_GLOBAL_OFFSET_TABLE_+0x88>
  400ea6:	68 0e 00 00 00       	pushq  $0xe
  400eab:	e9 00 ff ff ff       	jmpq   400db0 <_init+0x30>

0000000000400eb0 <gethostbyname@plt>:
  400eb0:	ff 25 da 31 20 00    	jmpq   *0x2031da(%rip)        # 604090 <_GLOBAL_OFFSET_TABLE_+0x90>
  400eb6:	68 0f 00 00 00       	pushq  $0xf
  400ebb:	e9 f0 fe ff ff       	jmpq   400db0 <_init+0x30>

0000000000400ec0 <fprintf@plt>:
  400ec0:	ff 25 d2 31 20 00    	jmpq   *0x2031d2(%rip)        # 604098 <_GLOBAL_OFFSET_TABLE_+0x98>
  400ec6:	68 10 00 00 00       	pushq  $0x10
  400ecb:	e9 e0 fe ff ff       	jmpq   400db0 <_init+0x30>

0000000000400ed0 <strtol@plt>:
  400ed0:	ff 25 ca 31 20 00    	jmpq   *0x2031ca(%rip)        # 6040a0 <_GLOBAL_OFFSET_TABLE_+0xa0>
  400ed6:	68 11 00 00 00       	pushq  $0x11
  400edb:	e9 d0 fe ff ff       	jmpq   400db0 <_init+0x30>

0000000000400ee0 <memcpy@plt>:
  400ee0:	ff 25 c2 31 20 00    	jmpq   *0x2031c2(%rip)        # 6040a8 <_GLOBAL_OFFSET_TABLE_+0xa8>
  400ee6:	68 12 00 00 00       	pushq  $0x12
  400eeb:	e9 c0 fe ff ff       	jmpq   400db0 <_init+0x30>

0000000000400ef0 <time@plt>:
  400ef0:	ff 25 ba 31 20 00    	jmpq   *0x2031ba(%rip)        # 6040b0 <_GLOBAL_OFFSET_TABLE_+0xb0>
  400ef6:	68 13 00 00 00       	pushq  $0x13
  400efb:	e9 b0 fe ff ff       	jmpq   400db0 <_init+0x30>

0000000000400f00 <random@plt>:
  400f00:	ff 25 b2 31 20 00    	jmpq   *0x2031b2(%rip)        # 6040b8 <_GLOBAL_OFFSET_TABLE_+0xb8>
  400f06:	68 14 00 00 00       	pushq  $0x14
  400f0b:	e9 a0 fe ff ff       	jmpq   400db0 <_init+0x30>

0000000000400f10 <_IO_getc@plt>:
  400f10:	ff 25 aa 31 20 00    	jmpq   *0x2031aa(%rip)        # 6040c0 <_GLOBAL_OFFSET_TABLE_+0xc0>
  400f16:	68 15 00 00 00       	pushq  $0x15
  400f1b:	e9 90 fe ff ff       	jmpq   400db0 <_init+0x30>

0000000000400f20 <__isoc99_sscanf@plt>:
  400f20:	ff 25 a2 31 20 00    	jmpq   *0x2031a2(%rip)        # 6040c8 <_GLOBAL_OFFSET_TABLE_+0xc8>
  400f26:	68 16 00 00 00       	pushq  $0x16
  400f2b:	e9 80 fe ff ff       	jmpq   400db0 <_init+0x30>

0000000000400f30 <munmap@plt>:
  400f30:	ff 25 9a 31 20 00    	jmpq   *0x20319a(%rip)        # 6040d0 <_GLOBAL_OFFSET_TABLE_+0xd0>
  400f36:	68 17 00 00 00       	pushq  $0x17
  400f3b:	e9 70 fe ff ff       	jmpq   400db0 <_init+0x30>

0000000000400f40 <bcopy@plt>:
  400f40:	ff 25 92 31 20 00    	jmpq   *0x203192(%rip)        # 6040d8 <_GLOBAL_OFFSET_TABLE_+0xd8>
  400f46:	68 18 00 00 00       	pushq  $0x18
  400f4b:	e9 60 fe ff ff       	jmpq   400db0 <_init+0x30>

0000000000400f50 <fopen@plt>:
  400f50:	ff 25 8a 31 20 00    	jmpq   *0x20318a(%rip)        # 6040e0 <_GLOBAL_OFFSET_TABLE_+0xe0>
  400f56:	68 19 00 00 00       	pushq  $0x19
  400f5b:	e9 50 fe ff ff       	jmpq   400db0 <_init+0x30>

0000000000400f60 <getopt@plt>:
  400f60:	ff 25 82 31 20 00    	jmpq   *0x203182(%rip)        # 6040e8 <_GLOBAL_OFFSET_TABLE_+0xe8>
  400f66:	68 1a 00 00 00       	pushq  $0x1a
  400f6b:	e9 40 fe ff ff       	jmpq   400db0 <_init+0x30>

0000000000400f70 <strtoul@plt>:
  400f70:	ff 25 7a 31 20 00    	jmpq   *0x20317a(%rip)        # 6040f0 <_GLOBAL_OFFSET_TABLE_+0xf0>
  400f76:	68 1b 00 00 00       	pushq  $0x1b
  400f7b:	e9 30 fe ff ff       	jmpq   400db0 <_init+0x30>

0000000000400f80 <gethostname@plt>:
  400f80:	ff 25 72 31 20 00    	jmpq   *0x203172(%rip)        # 6040f8 <_GLOBAL_OFFSET_TABLE_+0xf8>
  400f86:	68 1c 00 00 00       	pushq  $0x1c
  400f8b:	e9 20 fe ff ff       	jmpq   400db0 <_init+0x30>

0000000000400f90 <sprintf@plt>:
  400f90:	ff 25 6a 31 20 00    	jmpq   *0x20316a(%rip)        # 604100 <_GLOBAL_OFFSET_TABLE_+0x100>
  400f96:	68 1d 00 00 00       	pushq  $0x1d
  400f9b:	e9 10 fe ff ff       	jmpq   400db0 <_init+0x30>

0000000000400fa0 <exit@plt>:
  400fa0:	ff 25 62 31 20 00    	jmpq   *0x203162(%rip)        # 604108 <_GLOBAL_OFFSET_TABLE_+0x108>
  400fa6:	68 1e 00 00 00       	pushq  $0x1e
  400fab:	e9 00 fe ff ff       	jmpq   400db0 <_init+0x30>

0000000000400fb0 <connect@plt>:
  400fb0:	ff 25 5a 31 20 00    	jmpq   *0x20315a(%rip)        # 604110 <_GLOBAL_OFFSET_TABLE_+0x110>
  400fb6:	68 1f 00 00 00       	pushq  $0x1f
  400fbb:	e9 f0 fd ff ff       	jmpq   400db0 <_init+0x30>

0000000000400fc0 <socket@plt>:
  400fc0:	ff 25 52 31 20 00    	jmpq   *0x203152(%rip)        # 604118 <_GLOBAL_OFFSET_TABLE_+0x118>
  400fc6:	68 20 00 00 00       	pushq  $0x20
  400fcb:	e9 e0 fd ff ff       	jmpq   400db0 <_init+0x30>

Desmontagem da seção .plt.got:

0000000000400fd0 <.plt.got>:
  400fd0:	ff 25 12 30 20 00    	jmpq   *0x203012(%rip)        # 603fe8 <_DYNAMIC+0x198>
  400fd6:	66 90                	xchg   %ax,%ax

Desmontagem da seção .text:

0000000000400fe0 <_start>:
  400fe0:	31 ed                	xor    %ebp,%ebp
  400fe2:	49 89 d1             	mov    %rdx,%r9
  400fe5:	5e                   	pop    %rsi
  400fe6:	48 89 e2             	mov    %rsp,%rdx
  400fe9:	48 83 e4 f0          	and    $0xfffffffffffffff0,%rsp
  400fed:	50                   	push   %rax
  400fee:	54                   	push   %rsp
  400fef:	49 c7 c0 90 2e 40 00 	mov    $0x402e90,%r8
  400ff6:	48 c7 c1 20 2e 40 00 	mov    $0x402e20,%rcx
  400ffd:	48 c7 c7 10 13 40 00 	mov    $0x401310,%rdi
  401004:	e8 87 fe ff ff       	callq  400e90 <__libc_start_main@plt>
  401009:	f4                   	hlt    
  40100a:	66 0f 1f 44 00 00    	nopw   0x0(%rax,%rax,1)

0000000000401010 <deregister_tm_clones>:
  401010:	48 8d 3d 79 34 20 00 	lea    0x203479(%rip),%rdi        # 604490 <__TMC_END__>
  401017:	48 8d 05 79 34 20 00 	lea    0x203479(%rip),%rax        # 604497 <__TMC_END__+0x7>
  40101e:	55                   	push   %rbp
  40101f:	48 29 f8             	sub    %rdi,%rax
  401022:	48 89 e5             	mov    %rsp,%rbp
  401025:	48 83 f8 0e          	cmp    $0xe,%rax
  401029:	76 15                	jbe    401040 <deregister_tm_clones+0x30>
  40102b:	48 8b 05 ae 2f 20 00 	mov    0x202fae(%rip),%rax        # 603fe0 <_DYNAMIC+0x190>
  401032:	48 85 c0             	test   %rax,%rax
  401035:	74 09                	je     401040 <deregister_tm_clones+0x30>
  401037:	5d                   	pop    %rbp
  401038:	ff e0                	jmpq   *%rax
  40103a:	66 0f 1f 44 00 00    	nopw   0x0(%rax,%rax,1)
  401040:	5d                   	pop    %rbp
  401041:	c3                   	retq   
  401042:	0f 1f 40 00          	nopl   0x0(%rax)
  401046:	66 2e 0f 1f 84 00 00 	nopw   %cs:0x0(%rax,%rax,1)
  40104d:	00 00 00 

0000000000401050 <register_tm_clones>:
  401050:	48 8d 3d 39 34 20 00 	lea    0x203439(%rip),%rdi        # 604490 <__TMC_END__>
  401057:	48 8d 35 32 34 20 00 	lea    0x203432(%rip),%rsi        # 604490 <__TMC_END__>
  40105e:	55                   	push   %rbp
  40105f:	48 29 fe             	sub    %rdi,%rsi
  401062:	48 89 e5             	mov    %rsp,%rbp
  401065:	48 c1 fe 03          	sar    $0x3,%rsi
  401069:	48 89 f0             	mov    %rsi,%rax
  40106c:	48 c1 e8 3f          	shr    $0x3f,%rax
  401070:	48 01 c6             	add    %rax,%rsi
  401073:	48 d1 fe             	sar    %rsi
  401076:	74 18                	je     401090 <register_tm_clones+0x40>
  401078:	48 8b 05 79 2f 20 00 	mov    0x202f79(%rip),%rax        # 603ff8 <_DYNAMIC+0x1a8>
  40107f:	48 85 c0             	test   %rax,%rax
  401082:	74 0c                	je     401090 <register_tm_clones+0x40>
  401084:	5d                   	pop    %rbp
  401085:	ff e0                	jmpq   *%rax
  401087:	66 0f 1f 84 00 00 00 	nopw   0x0(%rax,%rax,1)
  40108e:	00 00 
  401090:	5d                   	pop    %rbp
  401091:	c3                   	retq   
  401092:	0f 1f 40 00          	nopl   0x0(%rax)
  401096:	66 2e 0f 1f 84 00 00 	nopw   %cs:0x0(%rax,%rax,1)
  40109d:	00 00 00 

00000000004010a0 <__do_global_dtors_aux>:
  4010a0:	80 3d 21 34 20 00 00 	cmpb   $0x0,0x203421(%rip)        # 6044c8 <completed.6948>
  4010a7:	75 62                	jne    40110b <__do_global_dtors_aux+0x6b>
  4010a9:	55                   	push   %rbp
  4010aa:	48 8d 15 87 2d 20 00 	lea    0x202d87(%rip),%rdx        # 603e38 <__DTOR_LIST__>
  4010b1:	48 8b 05 18 34 20 00 	mov    0x203418(%rip),%rax        # 6044d0 <dtor_idx.6950>
  4010b8:	48 89 e5             	mov    %rsp,%rbp
  4010bb:	41 54                	push   %r12
  4010bd:	53                   	push   %rbx
  4010be:	48 8d 1d 7b 2d 20 00 	lea    0x202d7b(%rip),%rbx        # 603e40 <__DTOR_END__>
  4010c5:	4c 8d 25 6c 2d 20 00 	lea    0x202d6c(%rip),%r12        # 603e38 <__DTOR_LIST__>
  4010cc:	48 29 d3             	sub    %rdx,%rbx
  4010cf:	48 c1 fb 03          	sar    $0x3,%rbx
  4010d3:	48 83 eb 01          	sub    $0x1,%rbx
  4010d7:	48 39 d8             	cmp    %rbx,%rax
  4010da:	73 1f                	jae    4010fb <__do_global_dtors_aux+0x5b>
  4010dc:	0f 1f 40 00          	nopl   0x0(%rax)
  4010e0:	48 83 c0 01          	add    $0x1,%rax
  4010e4:	48 89 05 e5 33 20 00 	mov    %rax,0x2033e5(%rip)        # 6044d0 <dtor_idx.6950>
  4010eb:	41 ff 14 c4          	callq  *(%r12,%rax,8)
  4010ef:	48 8b 05 da 33 20 00 	mov    0x2033da(%rip),%rax        # 6044d0 <dtor_idx.6950>
  4010f6:	48 39 d8             	cmp    %rbx,%rax
  4010f9:	72 e5                	jb     4010e0 <__do_global_dtors_aux+0x40>
  4010fb:	e8 10 ff ff ff       	callq  401010 <deregister_tm_clones>
  401100:	5b                   	pop    %rbx
  401101:	41 5c                	pop    %r12
  401103:	5d                   	pop    %rbp
  401104:	c6 05 bd 33 20 00 01 	movb   $0x1,0x2033bd(%rip)        # 6044c8 <completed.6948>
  40110b:	f3 c3                	repz retq 
  40110d:	0f 1f 00             	nopl   (%rax)

0000000000401110 <frame_dummy>:
  401110:	48 8d 3d 31 2d 20 00 	lea    0x202d31(%rip),%rdi        # 603e48 <__JCR_END__>
  401117:	48 83 3f 00          	cmpq   $0x0,(%rdi)
  40111b:	75 0b                	jne    401128 <frame_dummy+0x18>
  40111d:	e9 2e ff ff ff       	jmpq   401050 <register_tm_clones>
  401122:	66 0f 1f 44 00 00    	nopw   0x0(%rax,%rax,1)
  401128:	48 8b 05 c1 2e 20 00 	mov    0x202ec1(%rip),%rax        # 603ff0 <_DYNAMIC+0x1a0>
  40112f:	48 85 c0             	test   %rax,%rax
  401132:	74 e9                	je     40111d <frame_dummy+0xd>
  401134:	55                   	push   %rbp
  401135:	48 89 e5             	mov    %rsp,%rbp
  401138:	ff d0                	callq  *%rax
  40113a:	5d                   	pop    %rbp
  40113b:	e9 10 ff ff ff       	jmpq   401050 <register_tm_clones>

0000000000401140 <usage>:
  401140:	48 83 ec 08          	sub    $0x8,%rsp
  401144:	48 89 fe             	mov    %rdi,%rsi
  401147:	83 3d ba 33 20 00 00 	cmpl   $0x0,0x2033ba(%rip)        # 604508 <is_checker>
  40114e:	74 39                	je     401189 <usage+0x49>
  401150:	bf f8 2e 40 00       	mov    $0x402ef8,%edi
  401155:	b8 00 00 00 00       	mov    $0x0,%eax
  40115a:	e8 e1 fc ff ff       	callq  400e40 <printf@plt>
  40115f:	bf 30 2f 40 00       	mov    $0x402f30,%edi
  401164:	e8 a7 fc ff ff       	callq  400e10 <puts@plt>
  401169:	bf a8 30 40 00       	mov    $0x4030a8,%edi
  40116e:	e8 9d fc ff ff       	callq  400e10 <puts@plt>
  401173:	bf 58 2f 40 00       	mov    $0x402f58,%edi
  401178:	e8 93 fc ff ff       	callq  400e10 <puts@plt>
  40117d:	bf c2 30 40 00       	mov    $0x4030c2,%edi
  401182:	e8 89 fc ff ff       	callq  400e10 <puts@plt>
  401187:	eb 2d                	jmp    4011b6 <usage+0x76>
  401189:	bf de 30 40 00       	mov    $0x4030de,%edi
  40118e:	b8 00 00 00 00       	mov    $0x0,%eax
  401193:	e8 a8 fc ff ff       	callq  400e40 <printf@plt>
  401198:	bf 80 2f 40 00       	mov    $0x402f80,%edi
  40119d:	e8 6e fc ff ff       	callq  400e10 <puts@plt>
  4011a2:	bf a8 2f 40 00       	mov    $0x402fa8,%edi
  4011a7:	e8 64 fc ff ff       	callq  400e10 <puts@plt>
  4011ac:	bf fc 30 40 00       	mov    $0x4030fc,%edi
  4011b1:	e8 5a fc ff ff       	callq  400e10 <puts@plt>
  4011b6:	bf 00 00 00 00       	mov    $0x0,%edi
  4011bb:	e8 e0 fd ff ff       	callq  400fa0 <exit@plt>

00000000004011c0 <initialize_target>:
  4011c0:	55                   	push   %rbp
  4011c1:	53                   	push   %rbx
  4011c2:	48 81 ec 08 21 00 00 	sub    $0x2108,%rsp
  4011c9:	89 f5                	mov    %esi,%ebp
  4011cb:	89 3d 27 33 20 00    	mov    %edi,0x203327(%rip)        # 6044f8 <check_level>
  4011d1:	8b 3d 71 2f 20 00    	mov    0x202f71(%rip),%edi        # 604148 <target_id>
  4011d7:	e8 25 1c 00 00       	callq  402e01 <gencookie>
  4011dc:	89 05 22 33 20 00    	mov    %eax,0x203322(%rip)        # 604504 <cookie>
  4011e2:	89 c7                	mov    %eax,%edi
  4011e4:	e8 18 1c 00 00       	callq  402e01 <gencookie>
  4011e9:	89 05 11 33 20 00    	mov    %eax,0x203311(%rip)        # 604500 <authkey>
  4011ef:	8b 05 53 2f 20 00    	mov    0x202f53(%rip),%eax        # 604148 <target_id>
  4011f5:	8d 78 01             	lea    0x1(%rax),%edi
  4011f8:	e8 e3 fb ff ff       	callq  400de0 <srandom@plt>
  4011fd:	e8 fe fc ff ff       	callq  400f00 <random@plt>
  401202:	89 c7                	mov    %eax,%edi
  401204:	e8 ca 02 00 00       	callq  4014d3 <scramble>
  401209:	89 c3                	mov    %eax,%ebx
  40120b:	85 ed                	test   %ebp,%ebp
  40120d:	74 18                	je     401227 <initialize_target+0x67>
  40120f:	bf 00 00 00 00       	mov    $0x0,%edi
  401214:	e8 d7 fc ff ff       	callq  400ef0 <time@plt>
  401219:	89 c7                	mov    %eax,%edi
  40121b:	e8 c0 fb ff ff       	callq  400de0 <srandom@plt>
  401220:	e8 db fc ff ff       	callq  400f00 <random@plt>
  401225:	eb 05                	jmp    40122c <initialize_target+0x6c>
  401227:	b8 00 00 00 00       	mov    $0x0,%eax
  40122c:	01 c3                	add    %eax,%ebx
  40122e:	0f b7 db             	movzwl %bx,%ebx
  401231:	8d 04 dd 00 01 00 00 	lea    0x100(,%rbx,8),%eax
  401238:	89 c0                	mov    %eax,%eax
  40123a:	48 89 05 3f 32 20 00 	mov    %rax,0x20323f(%rip)        # 604480 <buf_offset>
  401241:	c6 05 e0 3e 20 00 63 	movb   $0x63,0x203ee0(%rip)        # 605128 <target_prefix>
  401248:	83 3d 39 32 20 00 00 	cmpl   $0x0,0x203239(%rip)        # 604488 <notify>
  40124f:	0f 84 b1 00 00 00    	je     401306 <initialize_target+0x146>
  401255:	83 3d ac 32 20 00 00 	cmpl   $0x0,0x2032ac(%rip)        # 604508 <is_checker>
  40125c:	0f 85 a4 00 00 00    	jne    401306 <initialize_target+0x146>
  401262:	be 00 01 00 00       	mov    $0x100,%esi
  401267:	48 89 e7             	mov    %rsp,%rdi
  40126a:	e8 11 fd ff ff       	callq  400f80 <gethostname@plt>
  40126f:	85 c0                	test   %eax,%eax
  401271:	74 25                	je     401298 <initialize_target+0xd8>
  401273:	bf d8 2f 40 00       	mov    $0x402fd8,%edi
  401278:	e8 93 fb ff ff       	callq  400e10 <puts@plt>
  40127d:	bf 08 00 00 00       	mov    $0x8,%edi
  401282:	e8 19 fd ff ff       	callq  400fa0 <exit@plt>
  401287:	48 89 e6             	mov    %rsp,%rsi
  40128a:	e8 31 fb ff ff       	callq  400dc0 <strcasecmp@plt>
  40128f:	85 c0                	test   %eax,%eax
  401291:	74 21                	je     4012b4 <initialize_target+0xf4>
  401293:	83 c3 01             	add    $0x1,%ebx
  401296:	eb 05                	jmp    40129d <initialize_target+0xdd>
  401298:	bb 00 00 00 00       	mov    $0x0,%ebx
  40129d:	48 63 c3             	movslq %ebx,%rax
  4012a0:	48 8b 3c c5 60 41 60 	mov    0x604160(,%rax,8),%rdi
  4012a7:	00 
  4012a8:	48 85 ff             	test   %rdi,%rdi
  4012ab:	75 da                	jne    401287 <initialize_target+0xc7>
  4012ad:	b8 00 00 00 00       	mov    $0x0,%eax
  4012b2:	eb 05                	jmp    4012b9 <initialize_target+0xf9>
  4012b4:	b8 01 00 00 00       	mov    $0x1,%eax
  4012b9:	85 c0                	test   %eax,%eax
  4012bb:	75 17                	jne    4012d4 <initialize_target+0x114>
  4012bd:	48 89 e6             	mov    %rsp,%rsi
  4012c0:	bf 10 30 40 00       	mov    $0x403010,%edi
  4012c5:	e8 76 fb ff ff       	callq  400e40 <printf@plt>
  4012ca:	bf 08 00 00 00       	mov    $0x8,%edi
  4012cf:	e8 cc fc ff ff       	callq  400fa0 <exit@plt>
  4012d4:	48 8d bc 24 00 01 00 	lea    0x100(%rsp),%rdi
  4012db:	00 
  4012dc:	e8 b9 18 00 00       	callq  402b9a <init_driver>
  4012e1:	85 c0                	test   %eax,%eax
  4012e3:	79 21                	jns    401306 <initialize_target+0x146>
  4012e5:	48 8d b4 24 00 01 00 	lea    0x100(%rsp),%rsi
  4012ec:	00 
  4012ed:	bf 50 30 40 00       	mov    $0x403050,%edi
  4012f2:	b8 00 00 00 00       	mov    $0x0,%eax
  4012f7:	e8 44 fb ff ff       	callq  400e40 <printf@plt>
  4012fc:	bf 08 00 00 00       	mov    $0x8,%edi
  401301:	e8 9a fc ff ff       	callq  400fa0 <exit@plt>
  401306:	48 81 c4 08 21 00 00 	add    $0x2108,%rsp
  40130d:	5b                   	pop    %rbx
  40130e:	5d                   	pop    %rbp
  40130f:	c3                   	retq   

0000000000401310 <main>:
  401310:	41 56                	push   %r14
  401312:	41 55                	push   %r13
  401314:	41 54                	push   %r12
  401316:	55                   	push   %rbp
  401317:	53                   	push   %rbx
  401318:	41 89 fc             	mov    %edi,%r12d
  40131b:	48 89 f3             	mov    %rsi,%rbx
  40131e:	be 97 1f 40 00       	mov    $0x401f97,%esi
  401323:	bf 0b 00 00 00       	mov    $0xb,%edi
  401328:	e8 73 fb ff ff       	callq  400ea0 <signal@plt>
  40132d:	be 49 1f 40 00       	mov    $0x401f49,%esi
  401332:	bf 07 00 00 00       	mov    $0x7,%edi
  401337:	e8 64 fb ff ff       	callq  400ea0 <signal@plt>
  40133c:	be e5 1f 40 00       	mov    $0x401fe5,%esi
  401341:	bf 04 00 00 00       	mov    $0x4,%edi
  401346:	e8 55 fb ff ff       	callq  400ea0 <signal@plt>
  40134b:	83 3d b6 31 20 00 00 	cmpl   $0x0,0x2031b6(%rip)        # 604508 <is_checker>
  401352:	74 20                	je     401374 <main+0x64>
  401354:	be 33 20 40 00       	mov    $0x402033,%esi
  401359:	bf 0e 00 00 00       	mov    $0xe,%edi
  40135e:	e8 3d fb ff ff       	callq  400ea0 <signal@plt>
  401363:	bf 05 00 00 00       	mov    $0x5,%edi
  401368:	e8 f3 fa ff ff       	callq  400e60 <alarm@plt>
  40136d:	bd 1a 31 40 00       	mov    $0x40311a,%ebp
  401372:	eb 05                	jmp    401379 <main+0x69>
  401374:	bd 15 31 40 00       	mov    $0x403115,%ebp
  401379:	48 8b 05 20 31 20 00 	mov    0x203120(%rip),%rax        # 6044a0 <stdin@@GLIBC_2.2.5>
  401380:	48 89 05 69 31 20 00 	mov    %rax,0x203169(%rip)        # 6044f0 <infile>
  401387:	41 bd 00 00 00 00    	mov    $0x0,%r13d
  40138d:	41 be 00 00 00 00    	mov    $0x0,%r14d
  401393:	e9 b9 00 00 00       	jmpq   401451 <main+0x141>
  401398:	83 e8 61             	sub    $0x61,%eax
  40139b:	3c 10                	cmp    $0x10,%al
  40139d:	0f 87 93 00 00 00    	ja     401436 <main+0x126>
  4013a3:	0f b6 c0             	movzbl %al,%eax
  4013a6:	ff 24 c5 60 31 40 00 	jmpq   *0x403160(,%rax,8)
  4013ad:	48 8b 3b             	mov    (%rbx),%rdi
  4013b0:	e8 8b fd ff ff       	callq  401140 <usage>
  4013b5:	be dd 33 40 00       	mov    $0x4033dd,%esi
  4013ba:	48 8b 3d e7 30 20 00 	mov    0x2030e7(%rip),%rdi        # 6044a8 <optarg@@GLIBC_2.2.5>
  4013c1:	e8 8a fb ff ff       	callq  400f50 <fopen@plt>
  4013c6:	48 89 05 23 31 20 00 	mov    %rax,0x203123(%rip)        # 6044f0 <infile>
  4013cd:	48 85 c0             	test   %rax,%rax
  4013d0:	75 7f                	jne    401451 <main+0x141>
  4013d2:	48 8b 15 cf 30 20 00 	mov    0x2030cf(%rip),%rdx        # 6044a8 <optarg@@GLIBC_2.2.5>
  4013d9:	be 22 31 40 00       	mov    $0x403122,%esi
  4013de:	48 8b 3d db 30 20 00 	mov    0x2030db(%rip),%rdi        # 6044c0 <stderr@@GLIBC_2.2.5>
  4013e5:	e8 d6 fa ff ff       	callq  400ec0 <fprintf@plt>
  4013ea:	b8 01 00 00 00       	mov    $0x1,%eax
  4013ef:	e9 d6 00 00 00       	jmpq   4014ca <main+0x1ba>
  4013f4:	ba 10 00 00 00       	mov    $0x10,%edx
  4013f9:	be 00 00 00 00       	mov    $0x0,%esi
  4013fe:	48 8b 3d a3 30 20 00 	mov    0x2030a3(%rip),%rdi        # 6044a8 <optarg@@GLIBC_2.2.5>
  401405:	e8 66 fb ff ff       	callq  400f70 <strtoul@plt>
  40140a:	41 89 c6             	mov    %eax,%r14d
  40140d:	eb 42                	jmp    401451 <main+0x141>
  40140f:	ba 0a 00 00 00       	mov    $0xa,%edx
  401414:	be 00 00 00 00       	mov    $0x0,%esi
  401419:	48 8b 3d 88 30 20 00 	mov    0x203088(%rip),%rdi        # 6044a8 <optarg@@GLIBC_2.2.5>
  401420:	e8 ab fa ff ff       	callq  400ed0 <strtol@plt>
  401425:	41 89 c5             	mov    %eax,%r13d
  401428:	eb 27                	jmp    401451 <main+0x141>
  40142a:	c7 05 54 30 20 00 00 	movl   $0x0,0x203054(%rip)        # 604488 <notify>
  401431:	00 00 00 
  401434:	eb 1b                	jmp    401451 <main+0x141>
  401436:	40 0f be f6          	movsbl %sil,%esi
  40143a:	bf 3f 31 40 00       	mov    $0x40313f,%edi
  40143f:	b8 00 00 00 00       	mov    $0x0,%eax
  401444:	e8 f7 f9 ff ff       	callq  400e40 <printf@plt>
  401449:	48 8b 3b             	mov    (%rbx),%rdi
  40144c:	e8 ef fc ff ff       	callq  401140 <usage>
  401451:	48 89 ea             	mov    %rbp,%rdx
  401454:	48 89 de             	mov    %rbx,%rsi
  401457:	44 89 e7             	mov    %r12d,%edi
  40145a:	e8 01 fb ff ff       	callq  400f60 <getopt@plt>
  40145f:	89 c6                	mov    %eax,%esi
  401461:	3c ff                	cmp    $0xff,%al
  401463:	0f 85 2f ff ff ff    	jne    401398 <main+0x88>
  401469:	be 00 00 00 00       	mov    $0x0,%esi
  40146e:	44 89 ef             	mov    %r13d,%edi
  401471:	e8 4a fd ff ff       	callq  4011c0 <initialize_target>
  401476:	83 3d 8b 30 20 00 00 	cmpl   $0x0,0x20308b(%rip)        # 604508 <is_checker>
  40147d:	74 25                	je     4014a4 <main+0x194>
  40147f:	44 3b 35 7a 30 20 00 	cmp    0x20307a(%rip),%r14d        # 604500 <authkey>
  401486:	74 1c                	je     4014a4 <main+0x194>
  401488:	44 89 f6             	mov    %r14d,%esi
  40148b:	bf 78 30 40 00       	mov    $0x403078,%edi
  401490:	b8 00 00 00 00       	mov    $0x0,%eax
  401495:	e8 a6 f9 ff ff       	callq  400e40 <printf@plt>
  40149a:	b8 00 00 00 00       	mov    $0x0,%eax
  40149f:	e8 b4 07 00 00       	callq  401c58 <check_fail>
  4014a4:	8b 35 5a 30 20 00    	mov    0x20305a(%rip),%esi        # 604504 <cookie>
  4014aa:	bf 52 31 40 00       	mov    $0x403152,%edi
  4014af:	b8 00 00 00 00       	mov    $0x0,%eax
  4014b4:	e8 87 f9 ff ff       	callq  400e40 <printf@plt>
  4014b9:	48 8b 3d c0 2f 20 00 	mov    0x202fc0(%rip),%rdi        # 604480 <buf_offset>
  4014c0:	e8 3d 0c 00 00       	callq  402102 <stable_launch>
  4014c5:	b8 00 00 00 00       	mov    $0x0,%eax
  4014ca:	5b                   	pop    %rbx
  4014cb:	5d                   	pop    %rbp
  4014cc:	41 5c                	pop    %r12
  4014ce:	41 5d                	pop    %r13
  4014d0:	41 5e                	pop    %r14
  4014d2:	c3                   	retq   

00000000004014d3 <scramble>:
  4014d3:	b8 00 00 00 00       	mov    $0x0,%eax
  4014d8:	eb 11                	jmp    4014eb <scramble+0x18>
  4014da:	69 d0 c4 4e 00 00    	imul   $0x4ec4,%eax,%edx
  4014e0:	01 fa                	add    %edi,%edx
  4014e2:	89 c1                	mov    %eax,%ecx
  4014e4:	89 54 8c d0          	mov    %edx,-0x30(%rsp,%rcx,4)
  4014e8:	83 c0 01             	add    $0x1,%eax
  4014eb:	83 f8 09             	cmp    $0x9,%eax
  4014ee:	76 ea                	jbe    4014da <scramble+0x7>
  4014f0:	8b 44 24 f0          	mov    -0x10(%rsp),%eax
  4014f4:	69 c0 6e 98 00 00    	imul   $0x986e,%eax,%eax
  4014fa:	89 44 24 f0          	mov    %eax,-0x10(%rsp)
  4014fe:	8b 44 24 f4          	mov    -0xc(%rsp),%eax
  401502:	69 c0 30 2f 00 00    	imul   $0x2f30,%eax,%eax
  401508:	89 44 24 f4          	mov    %eax,-0xc(%rsp)
  40150c:	8b 44 24 e4          	mov    -0x1c(%rsp),%eax
  401510:	69 c0 2e 83 00 00    	imul   $0x832e,%eax,%eax
  401516:	89 44 24 e4          	mov    %eax,-0x1c(%rsp)
  40151a:	8b 44 24 d4          	mov    -0x2c(%rsp),%eax
  40151e:	69 c0 75 4c 00 00    	imul   $0x4c75,%eax,%eax
  401524:	89 44 24 d4          	mov    %eax,-0x2c(%rsp)
  401528:	8b 44 24 d0          	mov    -0x30(%rsp),%eax
  40152c:	69 c0 56 20 00 00    	imul   $0x2056,%eax,%eax
  401532:	89 44 24 d0          	mov    %eax,-0x30(%rsp)
  401536:	8b 44 24 e8          	mov    -0x18(%rsp),%eax
  40153a:	69 c0 68 fa 00 00    	imul   $0xfa68,%eax,%eax
  401540:	89 44 24 e8          	mov    %eax,-0x18(%rsp)
  401544:	8b 44 24 e0          	mov    -0x20(%rsp),%eax
  401548:	69 c0 72 24 00 00    	imul   $0x2472,%eax,%eax
  40154e:	89 44 24 e0          	mov    %eax,-0x20(%rsp)
  401552:	8b 44 24 d4          	mov    -0x2c(%rsp),%eax
  401556:	69 c0 87 ca 00 00    	imul   $0xca87,%eax,%eax
  40155c:	89 44 24 d4          	mov    %eax,-0x2c(%rsp)
  401560:	8b 44 24 ec          	mov    -0x14(%rsp),%eax
  401564:	69 c0 d8 c4 00 00    	imul   $0xc4d8,%eax,%eax
  40156a:	89 44 24 ec          	mov    %eax,-0x14(%rsp)
  40156e:	8b 44 24 d8          	mov    -0x28(%rsp),%eax
  401572:	69 c0 e7 ac 00 00    	imul   $0xace7,%eax,%eax
  401578:	89 44 24 d8          	mov    %eax,-0x28(%rsp)
  40157c:	8b 44 24 e8          	mov    -0x18(%rsp),%eax
  401580:	69 c0 12 74 00 00    	imul   $0x7412,%eax,%eax
  401586:	89 44 24 e8          	mov    %eax,-0x18(%rsp)
  40158a:	8b 44 24 d0          	mov    -0x30(%rsp),%eax
  40158e:	69 c0 36 9d 00 00    	imul   $0x9d36,%eax,%eax
  401594:	89 44 24 d0          	mov    %eax,-0x30(%rsp)
  401598:	8b 44 24 ec          	mov    -0x14(%rsp),%eax
  40159c:	69 c0 bf 28 00 00    	imul   $0x28bf,%eax,%eax
  4015a2:	89 44 24 ec          	mov    %eax,-0x14(%rsp)
  4015a6:	8b 44 24 e8          	mov    -0x18(%rsp),%eax
  4015aa:	69 c0 fb 2b 00 00    	imul   $0x2bfb,%eax,%eax
  4015b0:	89 44 24 e8          	mov    %eax,-0x18(%rsp)
  4015b4:	8b 44 24 f4          	mov    -0xc(%rsp),%eax
  4015b8:	69 c0 5b d8 00 00    	imul   $0xd85b,%eax,%eax
  4015be:	89 44 24 f4          	mov    %eax,-0xc(%rsp)
  4015c2:	8b 44 24 e4          	mov    -0x1c(%rsp),%eax
  4015c6:	69 c0 d2 15 00 00    	imul   $0x15d2,%eax,%eax
  4015cc:	89 44 24 e4          	mov    %eax,-0x1c(%rsp)
  4015d0:	8b 44 24 d8          	mov    -0x28(%rsp),%eax
  4015d4:	69 c0 4f fe 00 00    	imul   $0xfe4f,%eax,%eax
  4015da:	89 44 24 d8          	mov    %eax,-0x28(%rsp)
  4015de:	8b 44 24 f4          	mov    -0xc(%rsp),%eax
  4015e2:	69 c0 fd 4f 00 00    	imul   $0x4ffd,%eax,%eax
  4015e8:	89 44 24 f4          	mov    %eax,-0xc(%rsp)
  4015ec:	8b 44 24 e8          	mov    -0x18(%rsp),%eax
  4015f0:	69 c0 26 7a 00 00    	imul   $0x7a26,%eax,%eax
  4015f6:	89 44 24 e8          	mov    %eax,-0x18(%rsp)
  4015fa:	8b 44 24 e0          	mov    -0x20(%rsp),%eax
  4015fe:	69 c0 7e e0 00 00    	imul   $0xe07e,%eax,%eax
  401604:	89 44 24 e0          	mov    %eax,-0x20(%rsp)
  401608:	8b 44 24 d0          	mov    -0x30(%rsp),%eax
  40160c:	69 c0 de b2 00 00    	imul   $0xb2de,%eax,%eax
  401612:	89 44 24 d0          	mov    %eax,-0x30(%rsp)
  401616:	8b 44 24 f0          	mov    -0x10(%rsp),%eax
  40161a:	69 c0 0c 29 00 00    	imul   $0x290c,%eax,%eax
  401620:	89 44 24 f0          	mov    %eax,-0x10(%rsp)
  401624:	8b 44 24 d4          	mov    -0x2c(%rsp),%eax
  401628:	69 c0 6c e3 00 00    	imul   $0xe36c,%eax,%eax
  40162e:	89 44 24 d4          	mov    %eax,-0x2c(%rsp)
  401632:	8b 44 24 dc          	mov    -0x24(%rsp),%eax
  401636:	69 c0 90 47 00 00    	imul   $0x4790,%eax,%eax
  40163c:	89 44 24 dc          	mov    %eax,-0x24(%rsp)
  401640:	8b 44 24 e4          	mov    -0x1c(%rsp),%eax
  401644:	69 c0 a0 7f 00 00    	imul   $0x7fa0,%eax,%eax
  40164a:	89 44 24 e4          	mov    %eax,-0x1c(%rsp)
  40164e:	8b 44 24 e0          	mov    -0x20(%rsp),%eax
  401652:	69 c0 d5 45 00 00    	imul   $0x45d5,%eax,%eax
  401658:	89 44 24 e0          	mov    %eax,-0x20(%rsp)
  40165c:	8b 44 24 d0          	mov    -0x30(%rsp),%eax
  401660:	69 c0 f4 4e 00 00    	imul   $0x4ef4,%eax,%eax
  401666:	89 44 24 d0          	mov    %eax,-0x30(%rsp)
  40166a:	8b 44 24 d4          	mov    -0x2c(%rsp),%eax
  40166e:	69 c0 0b 5e 00 00    	imul   $0x5e0b,%eax,%eax
  401674:	89 44 24 d4          	mov    %eax,-0x2c(%rsp)
  401678:	8b 44 24 d8          	mov    -0x28(%rsp),%eax
  40167c:	69 c0 23 3b 00 00    	imul   $0x3b23,%eax,%eax
  401682:	89 44 24 d8          	mov    %eax,-0x28(%rsp)
  401686:	8b 44 24 d0          	mov    -0x30(%rsp),%eax
  40168a:	69 c0 c1 3e 00 00    	imul   $0x3ec1,%eax,%eax
  401690:	89 44 24 d0          	mov    %eax,-0x30(%rsp)
  401694:	8b 44 24 e4          	mov    -0x1c(%rsp),%eax
  401698:	69 c0 a3 f2 00 00    	imul   $0xf2a3,%eax,%eax
  40169e:	89 44 24 e4          	mov    %eax,-0x1c(%rsp)
  4016a2:	8b 44 24 e0          	mov    -0x20(%rsp),%eax
  4016a6:	69 c0 47 84 00 00    	imul   $0x8447,%eax,%eax
  4016ac:	89 44 24 e0          	mov    %eax,-0x20(%rsp)
  4016b0:	8b 44 24 e0          	mov    -0x20(%rsp),%eax
  4016b4:	69 c0 95 99 00 00    	imul   $0x9995,%eax,%eax
  4016ba:	89 44 24 e0          	mov    %eax,-0x20(%rsp)
  4016be:	8b 44 24 ec          	mov    -0x14(%rsp),%eax
  4016c2:	69 c0 70 72 00 00    	imul   $0x7270,%eax,%eax
  4016c8:	89 44 24 ec          	mov    %eax,-0x14(%rsp)
  4016cc:	8b 44 24 f0          	mov    -0x10(%rsp),%eax
  4016d0:	69 c0 b7 70 00 00    	imul   $0x70b7,%eax,%eax
  4016d6:	89 44 24 f0          	mov    %eax,-0x10(%rsp)
  4016da:	8b 44 24 ec          	mov    -0x14(%rsp),%eax
  4016de:	69 c0 38 ae 00 00    	imul   $0xae38,%eax,%eax
  4016e4:	89 44 24 ec          	mov    %eax,-0x14(%rsp)
  4016e8:	8b 44 24 e0          	mov    -0x20(%rsp),%eax
  4016ec:	69 c0 d5 2d 00 00    	imul   $0x2dd5,%eax,%eax
  4016f2:	89 44 24 e0          	mov    %eax,-0x20(%rsp)
  4016f6:	8b 44 24 e4          	mov    -0x1c(%rsp),%eax
  4016fa:	69 c0 e6 fa 00 00    	imul   $0xfae6,%eax,%eax
  401700:	89 44 24 e4          	mov    %eax,-0x1c(%rsp)
  401704:	8b 44 24 d8          	mov    -0x28(%rsp),%eax
  401708:	69 c0 d8 ca 00 00    	imul   $0xcad8,%eax,%eax
  40170e:	89 44 24 d8          	mov    %eax,-0x28(%rsp)
  401712:	8b 44 24 f0          	mov    -0x10(%rsp),%eax
  401716:	69 c0 86 b9 00 00    	imul   $0xb986,%eax,%eax
  40171c:	89 44 24 f0          	mov    %eax,-0x10(%rsp)
  401720:	8b 44 24 e8          	mov    -0x18(%rsp),%eax
  401724:	69 c0 ed 36 00 00    	imul   $0x36ed,%eax,%eax
  40172a:	89 44 24 e8          	mov    %eax,-0x18(%rsp)
  40172e:	8b 44 24 f4          	mov    -0xc(%rsp),%eax
  401732:	69 c0 2b 3e 00 00    	imul   $0x3e2b,%eax,%eax
  401738:	89 44 24 f4          	mov    %eax,-0xc(%rsp)
  40173c:	8b 44 24 d8          	mov    -0x28(%rsp),%eax
  401740:	69 c0 68 e2 00 00    	imul   $0xe268,%eax,%eax
  401746:	89 44 24 d8          	mov    %eax,-0x28(%rsp)
  40174a:	8b 44 24 ec          	mov    -0x14(%rsp),%eax
  40174e:	69 c0 94 fd 00 00    	imul   $0xfd94,%eax,%eax
  401754:	89 44 24 ec          	mov    %eax,-0x14(%rsp)
  401758:	8b 44 24 d4          	mov    -0x2c(%rsp),%eax
  40175c:	69 c0 3c 26 00 00    	imul   $0x263c,%eax,%eax
  401762:	89 44 24 d4          	mov    %eax,-0x2c(%rsp)
  401766:	8b 44 24 d0          	mov    -0x30(%rsp),%eax
  40176a:	69 c0 09 31 00 00    	imul   $0x3109,%eax,%eax
  401770:	89 44 24 d0          	mov    %eax,-0x30(%rsp)
  401774:	8b 44 24 e0          	mov    -0x20(%rsp),%eax
  401778:	69 c0 e8 90 00 00    	imul   $0x90e8,%eax,%eax
  40177e:	89 44 24 e0          	mov    %eax,-0x20(%rsp)
  401782:	8b 44 24 e8          	mov    -0x18(%rsp),%eax
  401786:	69 c0 d2 09 00 00    	imul   $0x9d2,%eax,%eax
  40178c:	89 44 24 e8          	mov    %eax,-0x18(%rsp)
  401790:	8b 44 24 d0          	mov    -0x30(%rsp),%eax
  401794:	69 c0 95 89 00 00    	imul   $0x8995,%eax,%eax
  40179a:	89 44 24 d0          	mov    %eax,-0x30(%rsp)
  40179e:	8b 44 24 d8          	mov    -0x28(%rsp),%eax
  4017a2:	69 c0 39 3e 00 00    	imul   $0x3e39,%eax,%eax
  4017a8:	89 44 24 d8          	mov    %eax,-0x28(%rsp)
  4017ac:	8b 44 24 ec          	mov    -0x14(%rsp),%eax
  4017b0:	69 c0 31 cf 00 00    	imul   $0xcf31,%eax,%eax
  4017b6:	89 44 24 ec          	mov    %eax,-0x14(%rsp)
  4017ba:	8b 44 24 d0          	mov    -0x30(%rsp),%eax
  4017be:	69 c0 e1 1d 00 00    	imul   $0x1de1,%eax,%eax
  4017c4:	89 44 24 d0          	mov    %eax,-0x30(%rsp)
  4017c8:	8b 44 24 f4          	mov    -0xc(%rsp),%eax
  4017cc:	69 c0 b6 c3 00 00    	imul   $0xc3b6,%eax,%eax
  4017d2:	89 44 24 f4          	mov    %eax,-0xc(%rsp)
  4017d6:	8b 44 24 d0          	mov    -0x30(%rsp),%eax
  4017da:	69 c0 47 0e 00 00    	imul   $0xe47,%eax,%eax
  4017e0:	89 44 24 d0          	mov    %eax,-0x30(%rsp)
  4017e4:	8b 44 24 e8          	mov    -0x18(%rsp),%eax
  4017e8:	69 c0 3d 5b 00 00    	imul   $0x5b3d,%eax,%eax
  4017ee:	89 44 24 e8          	mov    %eax,-0x18(%rsp)
  4017f2:	8b 44 24 f4          	mov    -0xc(%rsp),%eax
  4017f6:	69 c0 06 d9 00 00    	imul   $0xd906,%eax,%eax
  4017fc:	89 44 24 f4          	mov    %eax,-0xc(%rsp)
  401800:	8b 44 24 e4          	mov    -0x1c(%rsp),%eax
  401804:	69 c0 2a c7 00 00    	imul   $0xc72a,%eax,%eax
  40180a:	89 44 24 e4          	mov    %eax,-0x1c(%rsp)
  40180e:	8b 44 24 d8          	mov    -0x28(%rsp),%eax
  401812:	69 c0 0c 18 00 00    	imul   $0x180c,%eax,%eax
  401818:	89 44 24 d8          	mov    %eax,-0x28(%rsp)
  40181c:	8b 44 24 e4          	mov    -0x1c(%rsp),%eax
  401820:	69 c0 67 b3 00 00    	imul   $0xb367,%eax,%eax
  401826:	89 44 24 e4          	mov    %eax,-0x1c(%rsp)
  40182a:	8b 44 24 e8          	mov    -0x18(%rsp),%eax
  40182e:	69 c0 1d c7 00 00    	imul   $0xc71d,%eax,%eax
  401834:	89 44 24 e8          	mov    %eax,-0x18(%rsp)
  401838:	8b 44 24 f0          	mov    -0x10(%rsp),%eax
  40183c:	69 c0 f6 51 00 00    	imul   $0x51f6,%eax,%eax
  401842:	89 44 24 f0          	mov    %eax,-0x10(%rsp)
  401846:	8b 44 24 e4          	mov    -0x1c(%rsp),%eax
  40184a:	69 c0 84 f2 00 00    	imul   $0xf284,%eax,%eax
  401850:	89 44 24 e4          	mov    %eax,-0x1c(%rsp)
  401854:	8b 44 24 e0          	mov    -0x20(%rsp),%eax
  401858:	69 c0 76 ad 00 00    	imul   $0xad76,%eax,%eax
  40185e:	89 44 24 e0          	mov    %eax,-0x20(%rsp)
  401862:	8b 44 24 e4          	mov    -0x1c(%rsp),%eax
  401866:	69 c0 5d 0d 00 00    	imul   $0xd5d,%eax,%eax
  40186c:	89 44 24 e4          	mov    %eax,-0x1c(%rsp)
  401870:	8b 44 24 e8          	mov    -0x18(%rsp),%eax
  401874:	69 c0 99 78 00 00    	imul   $0x7899,%eax,%eax
  40187a:	89 44 24 e8          	mov    %eax,-0x18(%rsp)
  40187e:	8b 44 24 f0          	mov    -0x10(%rsp),%eax
  401882:	69 c0 57 31 00 00    	imul   $0x3157,%eax,%eax
  401888:	89 44 24 f0          	mov    %eax,-0x10(%rsp)
  40188c:	8b 44 24 f4          	mov    -0xc(%rsp),%eax
  401890:	69 c0 08 38 00 00    	imul   $0x3808,%eax,%eax
  401896:	89 44 24 f4          	mov    %eax,-0xc(%rsp)
  40189a:	8b 44 24 f0          	mov    -0x10(%rsp),%eax
  40189e:	69 c0 d0 44 00 00    	imul   $0x44d0,%eax,%eax
  4018a4:	89 44 24 f0          	mov    %eax,-0x10(%rsp)
  4018a8:	8b 44 24 e4          	mov    -0x1c(%rsp),%eax
  4018ac:	69 c0 00 68 00 00    	imul   $0x6800,%eax,%eax
  4018b2:	89 44 24 e4          	mov    %eax,-0x1c(%rsp)
  4018b6:	8b 44 24 d8          	mov    -0x28(%rsp),%eax
  4018ba:	69 c0 4c 8a 00 00    	imul   $0x8a4c,%eax,%eax
  4018c0:	89 44 24 d8          	mov    %eax,-0x28(%rsp)
  4018c4:	8b 44 24 f0          	mov    -0x10(%rsp),%eax
  4018c8:	69 c0 e5 1a 00 00    	imul   $0x1ae5,%eax,%eax
  4018ce:	89 44 24 f0          	mov    %eax,-0x10(%rsp)
  4018d2:	8b 44 24 ec          	mov    -0x14(%rsp),%eax
  4018d6:	69 c0 69 55 00 00    	imul   $0x5569,%eax,%eax
  4018dc:	89 44 24 ec          	mov    %eax,-0x14(%rsp)
  4018e0:	8b 44 24 dc          	mov    -0x24(%rsp),%eax
  4018e4:	69 c0 84 7a 00 00    	imul   $0x7a84,%eax,%eax
  4018ea:	89 44 24 dc          	mov    %eax,-0x24(%rsp)
  4018ee:	8b 44 24 e4          	mov    -0x1c(%rsp),%eax
  4018f2:	69 c0 a1 8b 00 00    	imul   $0x8ba1,%eax,%eax
  4018f8:	89 44 24 e4          	mov    %eax,-0x1c(%rsp)
  4018fc:	8b 44 24 d8          	mov    -0x28(%rsp),%eax
  401900:	69 c0 16 83 00 00    	imul   $0x8316,%eax,%eax
  401906:	89 44 24 d8          	mov    %eax,-0x28(%rsp)
  40190a:	8b 44 24 ec          	mov    -0x14(%rsp),%eax
  40190e:	69 c0 8f 07 00 00    	imul   $0x78f,%eax,%eax
  401914:	89 44 24 ec          	mov    %eax,-0x14(%rsp)
  401918:	8b 44 24 d4          	mov    -0x2c(%rsp),%eax
  40191c:	69 c0 e4 4a 00 00    	imul   $0x4ae4,%eax,%eax
  401922:	89 44 24 d4          	mov    %eax,-0x2c(%rsp)
  401926:	8b 44 24 ec          	mov    -0x14(%rsp),%eax
  40192a:	69 c0 ec b7 00 00    	imul   $0xb7ec,%eax,%eax
  401930:	89 44 24 ec          	mov    %eax,-0x14(%rsp)
  401934:	8b 44 24 e4          	mov    -0x1c(%rsp),%eax
  401938:	69 c0 6a f6 00 00    	imul   $0xf66a,%eax,%eax
  40193e:	89 44 24 e4          	mov    %eax,-0x1c(%rsp)
  401942:	8b 44 24 e4          	mov    -0x1c(%rsp),%eax
  401946:	69 c0 66 2f 00 00    	imul   $0x2f66,%eax,%eax
  40194c:	89 44 24 e4          	mov    %eax,-0x1c(%rsp)
  401950:	8b 44 24 d8          	mov    -0x28(%rsp),%eax
  401954:	69 c0 df 10 00 00    	imul   $0x10df,%eax,%eax
  40195a:	89 44 24 d8          	mov    %eax,-0x28(%rsp)
  40195e:	8b 44 24 f4          	mov    -0xc(%rsp),%eax
  401962:	69 c0 cd b6 00 00    	imul   $0xb6cd,%eax,%eax
  401968:	89 44 24 f4          	mov    %eax,-0xc(%rsp)
  40196c:	8b 44 24 d4          	mov    -0x2c(%rsp),%eax
  401970:	69 c0 f7 af 00 00    	imul   $0xaff7,%eax,%eax
  401976:	89 44 24 d4          	mov    %eax,-0x2c(%rsp)
  40197a:	8b 44 24 dc          	mov    -0x24(%rsp),%eax
  40197e:	69 c0 a5 44 00 00    	imul   $0x44a5,%eax,%eax
  401984:	89 44 24 dc          	mov    %eax,-0x24(%rsp)
  401988:	8b 44 24 ec          	mov    -0x14(%rsp),%eax
  40198c:	69 c0 b4 4e 00 00    	imul   $0x4eb4,%eax,%eax
  401992:	89 44 24 ec          	mov    %eax,-0x14(%rsp)
  401996:	8b 44 24 d8          	mov    -0x28(%rsp),%eax
  40199a:	69 c0 35 db 00 00    	imul   $0xdb35,%eax,%eax
  4019a0:	89 44 24 d8          	mov    %eax,-0x28(%rsp)
  4019a4:	8b 44 24 f0          	mov    -0x10(%rsp),%eax
  4019a8:	69 c0 44 32 00 00    	imul   $0x3244,%eax,%eax
  4019ae:	89 44 24 f0          	mov    %eax,-0x10(%rsp)
  4019b2:	8b 44 24 e0          	mov    -0x20(%rsp),%eax
  4019b6:	69 c0 a9 4b 00 00    	imul   $0x4ba9,%eax,%eax
  4019bc:	89 44 24 e0          	mov    %eax,-0x20(%rsp)
  4019c0:	8b 44 24 dc          	mov    -0x24(%rsp),%eax
  4019c4:	69 c0 14 9e 00 00    	imul   $0x9e14,%eax,%eax
  4019ca:	89 44 24 dc          	mov    %eax,-0x24(%rsp)
  4019ce:	8b 44 24 e0          	mov    -0x20(%rsp),%eax
  4019d2:	69 c0 b3 da 00 00    	imul   $0xdab3,%eax,%eax
  4019d8:	89 44 24 e0          	mov    %eax,-0x20(%rsp)
  4019dc:	8b 44 24 e4          	mov    -0x1c(%rsp),%eax
  4019e0:	69 c0 09 2a 00 00    	imul   $0x2a09,%eax,%eax
  4019e6:	89 44 24 e4          	mov    %eax,-0x1c(%rsp)
  4019ea:	8b 44 24 f0          	mov    -0x10(%rsp),%eax
  4019ee:	69 c0 37 f6 00 00    	imul   $0xf637,%eax,%eax
  4019f4:	89 44 24 f0          	mov    %eax,-0x10(%rsp)
  4019f8:	8b 44 24 e4          	mov    -0x1c(%rsp),%eax
  4019fc:	69 c0 56 dc 00 00    	imul   $0xdc56,%eax,%eax
  401a02:	89 44 24 e4          	mov    %eax,-0x1c(%rsp)
  401a06:	8b 44 24 e0          	mov    -0x20(%rsp),%eax
  401a0a:	69 c0 49 6d 00 00    	imul   $0x6d49,%eax,%eax
  401a10:	89 44 24 e0          	mov    %eax,-0x20(%rsp)
  401a14:	8b 44 24 d4          	mov    -0x2c(%rsp),%eax
  401a18:	69 c0 6c 73 00 00    	imul   $0x736c,%eax,%eax
  401a1e:	89 44 24 d4          	mov    %eax,-0x2c(%rsp)
  401a22:	8b 44 24 e0          	mov    -0x20(%rsp),%eax
  401a26:	69 c0 c3 41 00 00    	imul   $0x41c3,%eax,%eax
  401a2c:	89 44 24 e0          	mov    %eax,-0x20(%rsp)
  401a30:	ba 00 00 00 00       	mov    $0x0,%edx
  401a35:	b8 00 00 00 00       	mov    $0x0,%eax
  401a3a:	eb 0b                	jmp    401a47 <scramble+0x574>
  401a3c:	89 d1                	mov    %edx,%ecx
  401a3e:	8b 4c 8c d0          	mov    -0x30(%rsp,%rcx,4),%ecx
  401a42:	01 c8                	add    %ecx,%eax
  401a44:	83 c2 01             	add    $0x1,%edx
  401a47:	83 fa 09             	cmp    $0x9,%edx
  401a4a:	76 f0                	jbe    401a3c <scramble+0x569>
  401a4c:	f3 c3                	repz retq 

0000000000401a4e <getbuf>:
  401a4e:	48 83 ec 28          	sub    $0x28,%rsp
  401a52:	48 89 e7             	mov    %rsp,%rdi
  401a55:	e8 2d 02 00 00       	callq  401c87 <Gets>
  401a5a:	b8 01 00 00 00       	mov    $0x1,%eax
  401a5f:	48 83 c4 28          	add    $0x28,%rsp
  401a63:	c3                   	retq   

0000000000401a64 <touch1>:
  401a64:	48 83 ec 08          	sub    $0x8,%rsp
  401a68:	c7 05 8a 2a 20 00 01 	movl   $0x1,0x202a8a(%rip)        # 6044fc <vlevel>
  401a6f:	00 00 00 
  401a72:	bf 36 32 40 00       	mov    $0x403236,%edi
  401a77:	e8 94 f3 ff ff       	callq  400e10 <puts@plt>
  401a7c:	bf 01 00 00 00       	mov    $0x1,%edi
  401a81:	e8 e9 03 00 00       	callq  401e6f <validate>
  401a86:	bf 00 00 00 00       	mov    $0x0,%edi
  401a8b:	e8 10 f5 ff ff       	callq  400fa0 <exit@plt>

0000000000401a90 <touch2>:
  401a90:	48 83 ec 08          	sub    $0x8,%rsp
  401a94:	89 fe                	mov    %edi,%esi
  401a96:	c7 05 5c 2a 20 00 02 	movl   $0x2,0x202a5c(%rip)        # 6044fc <vlevel>
  401a9d:	00 00 00 
  401aa0:	39 3d 5e 2a 20 00    	cmp    %edi,0x202a5e(%rip)        # 604504 <cookie>
  401aa6:	75 1b                	jne    401ac3 <touch2+0x33>
  401aa8:	bf 58 32 40 00       	mov    $0x403258,%edi
  401aad:	b8 00 00 00 00       	mov    $0x0,%eax
  401ab2:	e8 89 f3 ff ff       	callq  400e40 <printf@plt>
  401ab7:	bf 02 00 00 00       	mov    $0x2,%edi
  401abc:	e8 ae 03 00 00       	callq  401e6f <validate>
  401ac1:	eb 19                	jmp    401adc <touch2+0x4c>
  401ac3:	bf 80 32 40 00       	mov    $0x403280,%edi
  401ac8:	b8 00 00 00 00       	mov    $0x0,%eax
  401acd:	e8 6e f3 ff ff       	callq  400e40 <printf@plt>
  401ad2:	bf 02 00 00 00       	mov    $0x2,%edi
  401ad7:	e8 45 04 00 00       	callq  401f21 <fail>
  401adc:	bf 00 00 00 00       	mov    $0x0,%edi
  401ae1:	e8 ba f4 ff ff       	callq  400fa0 <exit@plt>

0000000000401ae6 <hexmatch>:
  401ae6:	41 54                	push   %r12
  401ae8:	55                   	push   %rbp
  401ae9:	53                   	push   %rbx
  401aea:	48 83 ec 70          	sub    $0x70,%rsp
  401aee:	89 fd                	mov    %edi,%ebp
  401af0:	48 89 f3             	mov    %rsi,%rbx
  401af3:	e8 08 f4 ff ff       	callq  400f00 <random@plt>
  401af8:	48 89 c1             	mov    %rax,%rcx
  401afb:	48 ba 0b d7 a3 70 3d 	movabs $0xa3d70a3d70a3d70b,%rdx
  401b02:	0a d7 a3 
  401b05:	48 f7 ea             	imul   %rdx
  401b08:	48 01 ca             	add    %rcx,%rdx
  401b0b:	48 c1 fa 06          	sar    $0x6,%rdx
  401b0f:	48 89 c8             	mov    %rcx,%rax
  401b12:	48 c1 f8 3f          	sar    $0x3f,%rax
  401b16:	48 29 c2             	sub    %rax,%rdx
  401b19:	48 8d 04 92          	lea    (%rdx,%rdx,4),%rax
  401b1d:	48 8d 14 80          	lea    (%rax,%rax,4),%rdx
  401b21:	48 8d 04 95 00 00 00 	lea    0x0(,%rdx,4),%rax
  401b28:	00 
  401b29:	48 29 c1             	sub    %rax,%rcx
  401b2c:	4c 8d 24 0c          	lea    (%rsp,%rcx,1),%r12
  401b30:	89 ea                	mov    %ebp,%edx
  401b32:	be 53 32 40 00       	mov    $0x403253,%esi
  401b37:	4c 89 e7             	mov    %r12,%rdi
  401b3a:	b8 00 00 00 00       	mov    $0x0,%eax
  401b3f:	e8 4c f4 ff ff       	callq  400f90 <sprintf@plt>
  401b44:	ba 09 00 00 00       	mov    $0x9,%edx
  401b49:	4c 89 e6             	mov    %r12,%rsi
  401b4c:	48 89 df             	mov    %rbx,%rdi
  401b4f:	e8 9c f2 ff ff       	callq  400df0 <strncmp@plt>
  401b54:	85 c0                	test   %eax,%eax
  401b56:	0f 94 c0             	sete   %al
  401b59:	0f b6 c0             	movzbl %al,%eax
  401b5c:	48 83 c4 70          	add    $0x70,%rsp
  401b60:	5b                   	pop    %rbx
  401b61:	5d                   	pop    %rbp
  401b62:	41 5c                	pop    %r12
  401b64:	c3                   	retq   

0000000000401b65 <touch3>:
  401b65:	53                   	push   %rbx
  401b66:	48 89 fb             	mov    %rdi,%rbx
  401b69:	c7 05 89 29 20 00 03 	movl   $0x3,0x202989(%rip)        # 6044fc <vlevel>
  401b70:	00 00 00 
  401b73:	48 89 fe             	mov    %rdi,%rsi
  401b76:	8b 3d 88 29 20 00    	mov    0x202988(%rip),%edi        # 604504 <cookie>
  401b7c:	e8 65 ff ff ff       	callq  401ae6 <hexmatch>
  401b81:	85 c0                	test   %eax,%eax
  401b83:	74 1e                	je     401ba3 <touch3+0x3e>
  401b85:	48 89 de             	mov    %rbx,%rsi
  401b88:	bf a8 32 40 00       	mov    $0x4032a8,%edi
  401b8d:	b8 00 00 00 00       	mov    $0x0,%eax
  401b92:	e8 a9 f2 ff ff       	callq  400e40 <printf@plt>
  401b97:	bf 03 00 00 00       	mov    $0x3,%edi
  401b9c:	e8 ce 02 00 00       	callq  401e6f <validate>
  401ba1:	eb 1c                	jmp    401bbf <touch3+0x5a>
  401ba3:	48 89 de             	mov    %rbx,%rsi
  401ba6:	bf d0 32 40 00       	mov    $0x4032d0,%edi
  401bab:	b8 00 00 00 00       	mov    $0x0,%eax
  401bb0:	e8 8b f2 ff ff       	callq  400e40 <printf@plt>
  401bb5:	bf 03 00 00 00       	mov    $0x3,%edi
  401bba:	e8 62 03 00 00       	callq  401f21 <fail>
  401bbf:	bf 00 00 00 00       	mov    $0x0,%edi
  401bc4:	e8 d7 f3 ff ff       	callq  400fa0 <exit@plt>

0000000000401bc9 <test>:
  401bc9:	48 83 ec 08          	sub    $0x8,%rsp
  401bcd:	b8 00 00 00 00       	mov    $0x0,%eax
  401bd2:	e8 77 fe ff ff       	callq  401a4e <getbuf>
  401bd7:	89 c6                	mov    %eax,%esi
  401bd9:	bf f8 32 40 00       	mov    $0x4032f8,%edi
  401bde:	b8 00 00 00 00       	mov    $0x0,%eax
  401be3:	e8 58 f2 ff ff       	callq  400e40 <printf@plt>
  401be8:	48 83 c4 08          	add    $0x8,%rsp
  401bec:	c3                   	retq   

0000000000401bed <save_char>:
  401bed:	8b 05 31 35 20 00    	mov    0x203531(%rip),%eax        # 605124 <gets_cnt>
  401bf3:	3d ff 03 00 00       	cmp    $0x3ff,%eax
  401bf8:	7f 49                	jg     401c43 <save_char+0x56>
  401bfa:	8d 14 40             	lea    (%rax,%rax,2),%edx
  401bfd:	89 f9                	mov    %edi,%ecx
  401bff:	c0 e9 04             	shr    $0x4,%cl
  401c02:	83 e1 0f             	and    $0xf,%ecx
  401c05:	0f b6 b1 20 36 40 00 	movzbl 0x403620(%rcx),%esi
  401c0c:	48 63 ca             	movslq %edx,%rcx
  401c0f:	40 88 b1 20 45 60 00 	mov    %sil,0x604520(%rcx)
  401c16:	8d 4a 01             	lea    0x1(%rdx),%ecx
  401c19:	83 e7 0f             	and    $0xf,%edi
  401c1c:	0f b6 b7 20 36 40 00 	movzbl 0x403620(%rdi),%esi
  401c23:	48 63 c9             	movslq %ecx,%rcx
  401c26:	40 88 b1 20 45 60 00 	mov    %sil,0x604520(%rcx)
  401c2d:	83 c2 02             	add    $0x2,%edx
  401c30:	48 63 d2             	movslq %edx,%rdx
  401c33:	c6 82 20 45 60 00 20 	movb   $0x20,0x604520(%rdx)
  401c3a:	83 c0 01             	add    $0x1,%eax
  401c3d:	89 05 e1 34 20 00    	mov    %eax,0x2034e1(%rip)        # 605124 <gets_cnt>
  401c43:	f3 c3                	repz retq 

0000000000401c45 <save_term>:
  401c45:	8b 05 d9 34 20 00    	mov    0x2034d9(%rip),%eax        # 605124 <gets_cnt>
  401c4b:	8d 04 40             	lea    (%rax,%rax,2),%eax
  401c4e:	48 98                	cltq   
  401c50:	c6 80 20 45 60 00 00 	movb   $0x0,0x604520(%rax)
  401c57:	c3                   	retq   

0000000000401c58 <check_fail>:
  401c58:	48 83 ec 08          	sub    $0x8,%rsp
  401c5c:	0f be 35 c5 34 20 00 	movsbl 0x2034c5(%rip),%esi        # 605128 <target_prefix>
  401c63:	b9 20 45 60 00       	mov    $0x604520,%ecx
  401c68:	8b 15 8a 28 20 00    	mov    0x20288a(%rip),%edx        # 6044f8 <check_level>
  401c6e:	bf 1b 33 40 00       	mov    $0x40331b,%edi
  401c73:	b8 00 00 00 00       	mov    $0x0,%eax
  401c78:	e8 c3 f1 ff ff       	callq  400e40 <printf@plt>
  401c7d:	bf 01 00 00 00       	mov    $0x1,%edi
  401c82:	e8 19 f3 ff ff       	callq  400fa0 <exit@plt>

0000000000401c87 <Gets>:
  401c87:	41 54                	push   %r12
  401c89:	55                   	push   %rbp
  401c8a:	53                   	push   %rbx
  401c8b:	49 89 fc             	mov    %rdi,%r12
  401c8e:	c7 05 8c 34 20 00 00 	movl   $0x0,0x20348c(%rip)        # 605124 <gets_cnt>
  401c95:	00 00 00 
  401c98:	48 89 fb             	mov    %rdi,%rbx
  401c9b:	eb 11                	jmp    401cae <Gets+0x27>
  401c9d:	48 8d 6b 01          	lea    0x1(%rbx),%rbp
  401ca1:	88 03                	mov    %al,(%rbx)
  401ca3:	0f b6 f8             	movzbl %al,%edi
  401ca6:	e8 42 ff ff ff       	callq  401bed <save_char>
  401cab:	48 89 eb             	mov    %rbp,%rbx
  401cae:	48 8b 3d 3b 28 20 00 	mov    0x20283b(%rip),%rdi        # 6044f0 <infile>
  401cb5:	e8 56 f2 ff ff       	callq  400f10 <_IO_getc@plt>
  401cba:	83 f8 ff             	cmp    $0xffffffff,%eax
  401cbd:	74 05                	je     401cc4 <Gets+0x3d>
  401cbf:	83 f8 0a             	cmp    $0xa,%eax
  401cc2:	75 d9                	jne    401c9d <Gets+0x16>
  401cc4:	c6 03 00             	movb   $0x0,(%rbx)
  401cc7:	b8 00 00 00 00       	mov    $0x0,%eax
  401ccc:	e8 74 ff ff ff       	callq  401c45 <save_term>
  401cd1:	4c 89 e0             	mov    %r12,%rax
  401cd4:	5b                   	pop    %rbx
  401cd5:	5d                   	pop    %rbp
  401cd6:	41 5c                	pop    %r12
  401cd8:	c3                   	retq   

0000000000401cd9 <notify_server>:
  401cd9:	83 3d 28 28 20 00 00 	cmpl   $0x0,0x202828(%rip)        # 604508 <is_checker>
  401ce0:	0f 85 87 01 00 00    	jne    401e6d <notify_server+0x194>
  401ce6:	53                   	push   %rbx
  401ce7:	48 81 ec 00 40 00 00 	sub    $0x4000,%rsp
  401cee:	89 fb                	mov    %edi,%ebx
  401cf0:	8b 05 2e 34 20 00    	mov    0x20342e(%rip),%eax        # 605124 <gets_cnt>
  401cf6:	83 c0 64             	add    $0x64,%eax
  401cf9:	3d 00 20 00 00       	cmp    $0x2000,%eax
  401cfe:	7e 19                	jle    401d19 <notify_server+0x40>
  401d00:	bf 50 34 40 00       	mov    $0x403450,%edi
  401d05:	b8 00 00 00 00       	mov    $0x0,%eax
  401d0a:	e8 31 f1 ff ff       	callq  400e40 <printf@plt>
  401d0f:	bf 01 00 00 00       	mov    $0x1,%edi
  401d14:	e8 87 f2 ff ff       	callq  400fa0 <exit@plt>
  401d19:	44 0f be 0d 07 34 20 	movsbl 0x203407(%rip),%r9d        # 605128 <target_prefix>
  401d20:	00 
  401d21:	83 3d 60 27 20 00 00 	cmpl   $0x0,0x202760(%rip)        # 604488 <notify>
  401d28:	74 09                	je     401d33 <notify_server+0x5a>
  401d2a:	44 8b 05 cf 27 20 00 	mov    0x2027cf(%rip),%r8d        # 604500 <authkey>
  401d31:	eb 06                	jmp    401d39 <notify_server+0x60>
  401d33:	41 b8 ff ff ff ff    	mov    $0xffffffff,%r8d
  401d39:	85 db                	test   %ebx,%ebx
  401d3b:	74 07                	je     401d44 <notify_server+0x6b>
  401d3d:	b9 31 33 40 00       	mov    $0x403331,%ecx
  401d42:	eb 05                	jmp    401d49 <notify_server+0x70>
  401d44:	b9 36 33 40 00       	mov    $0x403336,%ecx
  401d49:	68 20 45 60 00       	pushq  $0x604520
  401d4e:	56                   	push   %rsi
  401d4f:	8b 15 f3 23 20 00    	mov    0x2023f3(%rip),%edx        # 604148 <target_id>
  401d55:	be 3b 33 40 00       	mov    $0x40333b,%esi
  401d5a:	48 8d bc 24 10 20 00 	lea    0x2010(%rsp),%rdi
  401d61:	00 
  401d62:	b8 00 00 00 00       	mov    $0x0,%eax
  401d67:	e8 24 f2 ff ff       	callq  400f90 <sprintf@plt>
  401d6c:	48 83 c4 10          	add    $0x10,%rsp
  401d70:	83 3d 11 27 20 00 00 	cmpl   $0x0,0x202711(%rip)        # 604488 <notify>
  401d77:	74 74                	je     401ded <notify_server+0x114>
  401d79:	85 db                	test   %ebx,%ebx
  401d7b:	74 64                	je     401de1 <notify_server+0x108>
  401d7d:	49 89 e1             	mov    %rsp,%r9
  401d80:	41 b8 00 00 00 00    	mov    $0x0,%r8d
  401d86:	48 8d 8c 24 00 20 00 	lea    0x2000(%rsp),%rcx
  401d8d:	00 
  401d8e:	48 8b 15 bb 23 20 00 	mov    0x2023bb(%rip),%rdx        # 604150 <lab>
  401d95:	48 8b 35 bc 23 20 00 	mov    0x2023bc(%rip),%rsi        # 604158 <course>
  401d9c:	48 8b 3d 9d 23 20 00 	mov    0x20239d(%rip),%rdi        # 604140 <user_id>
  401da3:	e8 bb 0f 00 00       	callq  402d63 <driver_post>
  401da8:	85 c0                	test   %eax,%eax
  401daa:	79 1c                	jns    401dc8 <notify_server+0xef>
  401dac:	48 89 e6             	mov    %rsp,%rsi
  401daf:	bf 57 33 40 00       	mov    $0x403357,%edi
  401db4:	b8 00 00 00 00       	mov    $0x0,%eax
  401db9:	e8 82 f0 ff ff       	callq  400e40 <printf@plt>
  401dbe:	bf 01 00 00 00       	mov    $0x1,%edi
  401dc3:	e8 d8 f1 ff ff       	callq  400fa0 <exit@plt>
  401dc8:	bf 80 34 40 00       	mov    $0x403480,%edi
  401dcd:	e8 3e f0 ff ff       	callq  400e10 <puts@plt>
  401dd2:	bf 63 33 40 00       	mov    $0x403363,%edi
  401dd7:	e8 34 f0 ff ff       	callq  400e10 <puts@plt>
  401ddc:	e9 84 00 00 00       	jmpq   401e65 <notify_server+0x18c>
  401de1:	bf 6d 33 40 00       	mov    $0x40336d,%edi
  401de6:	e8 25 f0 ff ff       	callq  400e10 <puts@plt>
  401deb:	eb 78                	jmp    401e65 <notify_server+0x18c>
  401ded:	85 db                	test   %ebx,%ebx
  401def:	74 07                	je     401df8 <notify_server+0x11f>
  401df1:	be 31 33 40 00       	mov    $0x403331,%esi
  401df6:	eb 05                	jmp    401dfd <notify_server+0x124>
  401df8:	be 36 33 40 00       	mov    $0x403336,%esi
  401dfd:	bf b8 34 40 00       	mov    $0x4034b8,%edi
  401e02:	b8 00 00 00 00       	mov    $0x0,%eax
  401e07:	e8 34 f0 ff ff       	callq  400e40 <printf@plt>
  401e0c:	48 8b 35 2d 23 20 00 	mov    0x20232d(%rip),%rsi        # 604140 <user_id>
  401e13:	bf 74 33 40 00       	mov    $0x403374,%edi
  401e18:	b8 00 00 00 00       	mov    $0x0,%eax
  401e1d:	e8 1e f0 ff ff       	callq  400e40 <printf@plt>
  401e22:	48 8b 35 2f 23 20 00 	mov    0x20232f(%rip),%rsi        # 604158 <course>
  401e29:	bf 81 33 40 00       	mov    $0x403381,%edi
  401e2e:	b8 00 00 00 00       	mov    $0x0,%eax
  401e33:	e8 08 f0 ff ff       	callq  400e40 <printf@plt>
  401e38:	48 8b 35 11 23 20 00 	mov    0x202311(%rip),%rsi        # 604150 <lab>
  401e3f:	bf 8d 33 40 00       	mov    $0x40338d,%edi
  401e44:	b8 00 00 00 00       	mov    $0x0,%eax
  401e49:	e8 f2 ef ff ff       	callq  400e40 <printf@plt>
  401e4e:	48 8d b4 24 00 20 00 	lea    0x2000(%rsp),%rsi
  401e55:	00 
  401e56:	bf 96 33 40 00       	mov    $0x403396,%edi
  401e5b:	b8 00 00 00 00       	mov    $0x0,%eax
  401e60:	e8 db ef ff ff       	callq  400e40 <printf@plt>
  401e65:	48 81 c4 00 40 00 00 	add    $0x4000,%rsp
  401e6c:	5b                   	pop    %rbx
  401e6d:	f3 c3                	repz retq 

0000000000401e6f <validate>:
  401e6f:	53                   	push   %rbx
  401e70:	89 fb                	mov    %edi,%ebx
  401e72:	83 3d 8f 26 20 00 00 	cmpl   $0x0,0x20268f(%rip)        # 604508 <is_checker>
  401e79:	74 60                	je     401edb <validate+0x6c>
  401e7b:	39 3d 7b 26 20 00    	cmp    %edi,0x20267b(%rip)        # 6044fc <vlevel>
  401e81:	74 14                	je     401e97 <validate+0x28>
  401e83:	bf a2 33 40 00       	mov    $0x4033a2,%edi
  401e88:	e8 83 ef ff ff       	callq  400e10 <puts@plt>
  401e8d:	b8 00 00 00 00       	mov    $0x0,%eax
  401e92:	e8 c1 fd ff ff       	callq  401c58 <check_fail>
  401e97:	8b 35 5b 26 20 00    	mov    0x20265b(%rip),%esi        # 6044f8 <check_level>
  401e9d:	39 f7                	cmp    %esi,%edi
  401e9f:	74 1b                	je     401ebc <validate+0x4d>
  401ea1:	89 fa                	mov    %edi,%edx
  401ea3:	bf e0 34 40 00       	mov    $0x4034e0,%edi
  401ea8:	b8 00 00 00 00       	mov    $0x0,%eax
  401ead:	e8 8e ef ff ff       	callq  400e40 <printf@plt>
  401eb2:	b8 00 00 00 00       	mov    $0x0,%eax
  401eb7:	e8 9c fd ff ff       	callq  401c58 <check_fail>
  401ebc:	0f be 35 65 32 20 00 	movsbl 0x203265(%rip),%esi        # 605128 <target_prefix>
  401ec3:	b9 20 45 60 00       	mov    $0x604520,%ecx
  401ec8:	89 fa                	mov    %edi,%edx
  401eca:	bf c0 33 40 00       	mov    $0x4033c0,%edi
  401ecf:	b8 00 00 00 00       	mov    $0x0,%eax
  401ed4:	e8 67 ef ff ff       	callq  400e40 <printf@plt>
  401ed9:	eb 44                	jmp    401f1f <validate+0xb0>
  401edb:	3b 3d 1b 26 20 00    	cmp    0x20261b(%rip),%edi        # 6044fc <vlevel>
  401ee1:	74 18                	je     401efb <validate+0x8c>
  401ee3:	bf a2 33 40 00       	mov    $0x4033a2,%edi
  401ee8:	e8 23 ef ff ff       	callq  400e10 <puts@plt>
  401eed:	89 de                	mov    %ebx,%esi
  401eef:	bf 00 00 00 00       	mov    $0x0,%edi
  401ef4:	e8 e0 fd ff ff       	callq  401cd9 <notify_server>
  401ef9:	eb 24                	jmp    401f1f <validate+0xb0>
  401efb:	0f be 15 26 32 20 00 	movsbl 0x203226(%rip),%edx        # 605128 <target_prefix>
  401f02:	89 fe                	mov    %edi,%esi
  401f04:	bf 08 35 40 00       	mov    $0x403508,%edi
  401f09:	b8 00 00 00 00       	mov    $0x0,%eax
  401f0e:	e8 2d ef ff ff       	callq  400e40 <printf@plt>
  401f13:	89 de                	mov    %ebx,%esi
  401f15:	bf 01 00 00 00       	mov    $0x1,%edi
  401f1a:	e8 ba fd ff ff       	callq  401cd9 <notify_server>
  401f1f:	5b                   	pop    %rbx
  401f20:	c3                   	retq   

0000000000401f21 <fail>:
  401f21:	48 83 ec 08          	sub    $0x8,%rsp
  401f25:	83 3d dc 25 20 00 00 	cmpl   $0x0,0x2025dc(%rip)        # 604508 <is_checker>
  401f2c:	74 0a                	je     401f38 <fail+0x17>
  401f2e:	b8 00 00 00 00       	mov    $0x0,%eax
  401f33:	e8 20 fd ff ff       	callq  401c58 <check_fail>
  401f38:	89 fe                	mov    %edi,%esi
  401f3a:	bf 00 00 00 00       	mov    $0x0,%edi
  401f3f:	e8 95 fd ff ff       	callq  401cd9 <notify_server>
  401f44:	48 83 c4 08          	add    $0x8,%rsp
  401f48:	c3                   	retq   

0000000000401f49 <bushandler>:
  401f49:	48 83 ec 08          	sub    $0x8,%rsp
  401f4d:	83 3d b4 25 20 00 00 	cmpl   $0x0,0x2025b4(%rip)        # 604508 <is_checker>
  401f54:	74 14                	je     401f6a <bushandler+0x21>
  401f56:	bf d5 33 40 00       	mov    $0x4033d5,%edi
  401f5b:	e8 b0 ee ff ff       	callq  400e10 <puts@plt>
  401f60:	b8 00 00 00 00       	mov    $0x0,%eax
  401f65:	e8 ee fc ff ff       	callq  401c58 <check_fail>
  401f6a:	bf 40 35 40 00       	mov    $0x403540,%edi
  401f6f:	e8 9c ee ff ff       	callq  400e10 <puts@plt>
  401f74:	bf df 33 40 00       	mov    $0x4033df,%edi
  401f79:	e8 92 ee ff ff       	callq  400e10 <puts@plt>
  401f7e:	be 00 00 00 00       	mov    $0x0,%esi
  401f83:	bf 00 00 00 00       	mov    $0x0,%edi
  401f88:	e8 4c fd ff ff       	callq  401cd9 <notify_server>
  401f8d:	bf 01 00 00 00       	mov    $0x1,%edi
  401f92:	e8 09 f0 ff ff       	callq  400fa0 <exit@plt>

0000000000401f97 <seghandler>:
  401f97:	48 83 ec 08          	sub    $0x8,%rsp
  401f9b:	83 3d 66 25 20 00 00 	cmpl   $0x0,0x202566(%rip)        # 604508 <is_checker>
  401fa2:	74 14                	je     401fb8 <seghandler+0x21>
  401fa4:	bf f5 33 40 00       	mov    $0x4033f5,%edi
  401fa9:	e8 62 ee ff ff       	callq  400e10 <puts@plt>
  401fae:	b8 00 00 00 00       	mov    $0x0,%eax
  401fb3:	e8 a0 fc ff ff       	callq  401c58 <check_fail>
  401fb8:	bf 60 35 40 00       	mov    $0x403560,%edi
  401fbd:	e8 4e ee ff ff       	callq  400e10 <puts@plt>
  401fc2:	bf df 33 40 00       	mov    $0x4033df,%edi
  401fc7:	e8 44 ee ff ff       	callq  400e10 <puts@plt>
  401fcc:	be 00 00 00 00       	mov    $0x0,%esi
  401fd1:	bf 00 00 00 00       	mov    $0x0,%edi
  401fd6:	e8 fe fc ff ff       	callq  401cd9 <notify_server>
  401fdb:	bf 01 00 00 00       	mov    $0x1,%edi
  401fe0:	e8 bb ef ff ff       	callq  400fa0 <exit@plt>

0000000000401fe5 <illegalhandler>:
  401fe5:	48 83 ec 08          	sub    $0x8,%rsp
  401fe9:	83 3d 18 25 20 00 00 	cmpl   $0x0,0x202518(%rip)        # 604508 <is_checker>
  401ff0:	74 14                	je     402006 <illegalhandler+0x21>
  401ff2:	bf 08 34 40 00       	mov    $0x403408,%edi
  401ff7:	e8 14 ee ff ff       	callq  400e10 <puts@plt>
  401ffc:	b8 00 00 00 00       	mov    $0x0,%eax
  402001:	e8 52 fc ff ff       	callq  401c58 <check_fail>
  402006:	bf 88 35 40 00       	mov    $0x403588,%edi
  40200b:	e8 00 ee ff ff       	callq  400e10 <puts@plt>
  402010:	bf df 33 40 00       	mov    $0x4033df,%edi
  402015:	e8 f6 ed ff ff       	callq  400e10 <puts@plt>
  40201a:	be 00 00 00 00       	mov    $0x0,%esi
  40201f:	bf 00 00 00 00       	mov    $0x0,%edi
  402024:	e8 b0 fc ff ff       	callq  401cd9 <notify_server>
  402029:	bf 01 00 00 00       	mov    $0x1,%edi
  40202e:	e8 6d ef ff ff       	callq  400fa0 <exit@plt>

0000000000402033 <sigalrmhandler>:
  402033:	48 83 ec 08          	sub    $0x8,%rsp
  402037:	83 3d ca 24 20 00 00 	cmpl   $0x0,0x2024ca(%rip)        # 604508 <is_checker>
  40203e:	74 14                	je     402054 <sigalrmhandler+0x21>
  402040:	bf 1c 34 40 00       	mov    $0x40341c,%edi
  402045:	e8 c6 ed ff ff       	callq  400e10 <puts@plt>
  40204a:	b8 00 00 00 00       	mov    $0x0,%eax
  40204f:	e8 04 fc ff ff       	callq  401c58 <check_fail>
  402054:	be 05 00 00 00       	mov    $0x5,%esi
  402059:	bf b8 35 40 00       	mov    $0x4035b8,%edi
  40205e:	b8 00 00 00 00       	mov    $0x0,%eax
  402063:	e8 d8 ed ff ff       	callq  400e40 <printf@plt>
  402068:	be 00 00 00 00       	mov    $0x0,%esi
  40206d:	bf 00 00 00 00       	mov    $0x0,%edi
  402072:	e8 62 fc ff ff       	callq  401cd9 <notify_server>
  402077:	bf 01 00 00 00       	mov    $0x1,%edi
  40207c:	e8 1f ef ff ff       	callq  400fa0 <exit@plt>

0000000000402081 <launch>:
  402081:	55                   	push   %rbp
  402082:	48 89 e5             	mov    %rsp,%rbp
  402085:	48 89 fa             	mov    %rdi,%rdx
  402088:	48 8d 47 1e          	lea    0x1e(%rdi),%rax
  40208c:	48 83 e0 f0          	and    $0xfffffffffffffff0,%rax
  402090:	48 29 c4             	sub    %rax,%rsp
  402093:	48 8d 7c 24 0f       	lea    0xf(%rsp),%rdi
  402098:	48 83 e7 f0          	and    $0xfffffffffffffff0,%rdi
  40209c:	be f4 00 00 00       	mov    $0xf4,%esi
  4020a1:	e8 aa ed ff ff       	callq  400e50 <memset@plt>
  4020a6:	48 8b 05 f3 23 20 00 	mov    0x2023f3(%rip),%rax        # 6044a0 <stdin@@GLIBC_2.2.5>
  4020ad:	48 39 05 3c 24 20 00 	cmp    %rax,0x20243c(%rip)        # 6044f0 <infile>
  4020b4:	75 0f                	jne    4020c5 <launch+0x44>
  4020b6:	bf 24 34 40 00       	mov    $0x403424,%edi
  4020bb:	b8 00 00 00 00       	mov    $0x0,%eax
  4020c0:	e8 7b ed ff ff       	callq  400e40 <printf@plt>
  4020c5:	c7 05 2d 24 20 00 00 	movl   $0x0,0x20242d(%rip)        # 6044fc <vlevel>
  4020cc:	00 00 00 
  4020cf:	b8 00 00 00 00       	mov    $0x0,%eax
  4020d4:	e8 f0 fa ff ff       	callq  401bc9 <test>
  4020d9:	83 3d 28 24 20 00 00 	cmpl   $0x0,0x202428(%rip)        # 604508 <is_checker>
  4020e0:	74 14                	je     4020f6 <launch+0x75>
  4020e2:	bf 31 34 40 00       	mov    $0x403431,%edi
  4020e7:	e8 24 ed ff ff       	callq  400e10 <puts@plt>
  4020ec:	b8 00 00 00 00       	mov    $0x0,%eax
  4020f1:	e8 62 fb ff ff       	callq  401c58 <check_fail>
  4020f6:	bf 3c 34 40 00       	mov    $0x40343c,%edi
  4020fb:	e8 10 ed ff ff       	callq  400e10 <puts@plt>
  402100:	c9                   	leaveq 
  402101:	c3                   	retq   

0000000000402102 <stable_launch>:
  402102:	53                   	push   %rbx
  402103:	48 89 3d de 23 20 00 	mov    %rdi,0x2023de(%rip)        # 6044e8 <global_offset>
  40210a:	41 b9 00 00 00 00    	mov    $0x0,%r9d
  402110:	41 b8 00 00 00 00    	mov    $0x0,%r8d
  402116:	b9 32 01 00 00       	mov    $0x132,%ecx
  40211b:	ba 07 00 00 00       	mov    $0x7,%edx
  402120:	be 00 00 10 00       	mov    $0x100000,%esi
  402125:	bf 00 60 58 55       	mov    $0x55586000,%edi
  40212a:	e8 01 ed ff ff       	callq  400e30 <mmap@plt>
  40212f:	48 89 c3             	mov    %rax,%rbx
  402132:	48 3d 00 60 58 55    	cmp    $0x55586000,%rax
  402138:	74 32                	je     40216c <stable_launch+0x6a>
  40213a:	be 00 00 10 00       	mov    $0x100000,%esi
  40213f:	48 89 c7             	mov    %rax,%rdi
  402142:	e8 e9 ed ff ff       	callq  400f30 <munmap@plt>
  402147:	ba 00 60 58 55       	mov    $0x55586000,%edx
  40214c:	be f0 35 40 00       	mov    $0x4035f0,%esi
  402151:	48 8b 3d 68 23 20 00 	mov    0x202368(%rip),%rdi        # 6044c0 <stderr@@GLIBC_2.2.5>
  402158:	b8 00 00 00 00       	mov    $0x0,%eax
  40215d:	e8 5e ed ff ff       	callq  400ec0 <fprintf@plt>
  402162:	bf 01 00 00 00       	mov    $0x1,%edi
  402167:	e8 34 ee ff ff       	callq  400fa0 <exit@plt>
  40216c:	48 8d 90 f8 ff 0f 00 	lea    0xffff8(%rax),%rdx
  402173:	48 89 15 b6 2f 20 00 	mov    %rdx,0x202fb6(%rip)        # 605130 <stack_top>
  40217a:	48 89 e0             	mov    %rsp,%rax
  40217d:	48 89 d4             	mov    %rdx,%rsp
  402180:	48 89 c2             	mov    %rax,%rdx
  402183:	48 89 15 56 23 20 00 	mov    %rdx,0x202356(%rip)        # 6044e0 <global_save_stack>
  40218a:	48 8b 3d 57 23 20 00 	mov    0x202357(%rip),%rdi        # 6044e8 <global_offset>
  402191:	e8 eb fe ff ff       	callq  402081 <launch>
  402196:	48 8b 05 43 23 20 00 	mov    0x202343(%rip),%rax        # 6044e0 <global_save_stack>
  40219d:	48 89 c4             	mov    %rax,%rsp
  4021a0:	be 00 00 10 00       	mov    $0x100000,%esi
  4021a5:	48 89 df             	mov    %rbx,%rdi
  4021a8:	e8 83 ed ff ff       	callq  400f30 <munmap@plt>
  4021ad:	5b                   	pop    %rbx
  4021ae:	c3                   	retq   

00000000004021af <rio_readinitb>:
  4021af:	89 37                	mov    %esi,(%rdi)
  4021b1:	c7 47 04 00 00 00 00 	movl   $0x0,0x4(%rdi)
  4021b8:	48 8d 47 10          	lea    0x10(%rdi),%rax
  4021bc:	48 89 47 08          	mov    %rax,0x8(%rdi)
  4021c0:	c3                   	retq   

00000000004021c1 <sigalrm_handler>:
  4021c1:	48 83 ec 08          	sub    $0x8,%rsp
  4021c5:	ba 00 00 00 00       	mov    $0x0,%edx
  4021ca:	be 30 36 40 00       	mov    $0x403630,%esi
  4021cf:	48 8b 3d ea 22 20 00 	mov    0x2022ea(%rip),%rdi        # 6044c0 <stderr@@GLIBC_2.2.5>
  4021d6:	b8 00 00 00 00       	mov    $0x0,%eax
  4021db:	e8 e0 ec ff ff       	callq  400ec0 <fprintf@plt>
  4021e0:	bf 01 00 00 00       	mov    $0x1,%edi
  4021e5:	e8 b6 ed ff ff       	callq  400fa0 <exit@plt>

00000000004021ea <urlencode>:
  4021ea:	41 54                	push   %r12
  4021ec:	55                   	push   %rbp
  4021ed:	53                   	push   %rbx
  4021ee:	48 83 ec 10          	sub    $0x10,%rsp
  4021f2:	48 89 fb             	mov    %rdi,%rbx
  4021f5:	48 89 f5             	mov    %rsi,%rbp
  4021f8:	b8 00 00 00 00       	mov    $0x0,%eax
  4021fd:	48 c7 c1 ff ff ff ff 	mov    $0xffffffffffffffff,%rcx
  402204:	f2 ae                	repnz scas %es:(%rdi),%al
  402206:	48 f7 d1             	not    %rcx
  402209:	8d 41 ff             	lea    -0x1(%rcx),%eax
  40220c:	e9 93 00 00 00       	jmpq   4022a4 <urlencode+0xba>
  402211:	0f b6 13             	movzbl (%rbx),%edx
  402214:	80 fa 2a             	cmp    $0x2a,%dl
  402217:	0f 94 c1             	sete   %cl
  40221a:	80 fa 2d             	cmp    $0x2d,%dl
  40221d:	0f 94 c0             	sete   %al
  402220:	08 c1                	or     %al,%cl
  402222:	75 1f                	jne    402243 <urlencode+0x59>
  402224:	80 fa 2e             	cmp    $0x2e,%dl
  402227:	74 1a                	je     402243 <urlencode+0x59>
  402229:	80 fa 5f             	cmp    $0x5f,%dl
  40222c:	74 15                	je     402243 <urlencode+0x59>
  40222e:	8d 42 d0             	lea    -0x30(%rdx),%eax
  402231:	3c 09                	cmp    $0x9,%al
  402233:	76 0e                	jbe    402243 <urlencode+0x59>
  402235:	8d 42 bf             	lea    -0x41(%rdx),%eax
  402238:	3c 19                	cmp    $0x19,%al
  40223a:	76 07                	jbe    402243 <urlencode+0x59>
  40223c:	8d 42 9f             	lea    -0x61(%rdx),%eax
  40223f:	3c 19                	cmp    $0x19,%al
  402241:	77 09                	ja     40224c <urlencode+0x62>
  402243:	88 55 00             	mov    %dl,0x0(%rbp)
  402246:	48 8d 6d 01          	lea    0x1(%rbp),%rbp
  40224a:	eb 51                	jmp    40229d <urlencode+0xb3>
  40224c:	80 fa 20             	cmp    $0x20,%dl
  40224f:	75 0a                	jne    40225b <urlencode+0x71>
  402251:	c6 45 00 2b          	movb   $0x2b,0x0(%rbp)
  402255:	48 8d 6d 01          	lea    0x1(%rbp),%rbp
  402259:	eb 42                	jmp    40229d <urlencode+0xb3>
  40225b:	8d 42 e0             	lea    -0x20(%rdx),%eax
  40225e:	3c 5f                	cmp    $0x5f,%al
  402260:	0f 96 c1             	setbe  %cl
  402263:	80 fa 09             	cmp    $0x9,%dl
  402266:	0f 94 c0             	sete   %al
  402269:	08 c1                	or     %al,%cl
  40226b:	74 45                	je     4022b2 <urlencode+0xc8>
  40226d:	0f b6 d2             	movzbl %dl,%edx
  402270:	be c8 36 40 00       	mov    $0x4036c8,%esi
  402275:	48 89 e7             	mov    %rsp,%rdi
  402278:	b8 00 00 00 00       	mov    $0x0,%eax
  40227d:	e8 0e ed ff ff       	callq  400f90 <sprintf@plt>
  402282:	0f b6 04 24          	movzbl (%rsp),%eax
  402286:	88 45 00             	mov    %al,0x0(%rbp)
  402289:	0f b6 44 24 01       	movzbl 0x1(%rsp),%eax
  40228e:	88 45 01             	mov    %al,0x1(%rbp)
  402291:	0f b6 44 24 02       	movzbl 0x2(%rsp),%eax
  402296:	88 45 02             	mov    %al,0x2(%rbp)
  402299:	48 8d 6d 03          	lea    0x3(%rbp),%rbp
  40229d:	48 83 c3 01          	add    $0x1,%rbx
  4022a1:	44 89 e0             	mov    %r12d,%eax
  4022a4:	44 8d 60 ff          	lea    -0x1(%rax),%r12d
  4022a8:	85 c0                	test   %eax,%eax
  4022aa:	0f 85 61 ff ff ff    	jne    402211 <urlencode+0x27>
  4022b0:	eb 05                	jmp    4022b7 <urlencode+0xcd>
  4022b2:	b8 ff ff ff ff       	mov    $0xffffffff,%eax
  4022b7:	48 83 c4 10          	add    $0x10,%rsp
  4022bb:	5b                   	pop    %rbx
  4022bc:	5d                   	pop    %rbp
  4022bd:	41 5c                	pop    %r12
  4022bf:	c3                   	retq   

00000000004022c0 <rio_writen>:
  4022c0:	41 55                	push   %r13
  4022c2:	41 54                	push   %r12
  4022c4:	55                   	push   %rbp
  4022c5:	53                   	push   %rbx
  4022c6:	48 83 ec 08          	sub    $0x8,%rsp
  4022ca:	41 89 fc             	mov    %edi,%r12d
  4022cd:	48 89 f5             	mov    %rsi,%rbp
  4022d0:	49 89 d5             	mov    %rdx,%r13
  4022d3:	48 89 d3             	mov    %rdx,%rbx
  4022d6:	eb 28                	jmp    402300 <rio_writen+0x40>
  4022d8:	48 89 da             	mov    %rbx,%rdx
  4022db:	48 89 ee             	mov    %rbp,%rsi
  4022de:	44 89 e7             	mov    %r12d,%edi
  4022e1:	e8 3a eb ff ff       	callq  400e20 <write@plt>
  4022e6:	48 85 c0             	test   %rax,%rax
  4022e9:	7f 0f                	jg     4022fa <rio_writen+0x3a>
  4022eb:	e8 e0 ea ff ff       	callq  400dd0 <__errno_location@plt>
  4022f0:	83 38 04             	cmpl   $0x4,(%rax)
  4022f3:	75 15                	jne    40230a <rio_writen+0x4a>
  4022f5:	b8 00 00 00 00       	mov    $0x0,%eax
  4022fa:	48 29 c3             	sub    %rax,%rbx
  4022fd:	48 01 c5             	add    %rax,%rbp
  402300:	48 85 db             	test   %rbx,%rbx
  402303:	75 d3                	jne    4022d8 <rio_writen+0x18>
  402305:	4c 89 e8             	mov    %r13,%rax
  402308:	eb 07                	jmp    402311 <rio_writen+0x51>
  40230a:	48 c7 c0 ff ff ff ff 	mov    $0xffffffffffffffff,%rax
  402311:	48 83 c4 08          	add    $0x8,%rsp
  402315:	5b                   	pop    %rbx
  402316:	5d                   	pop    %rbp
  402317:	41 5c                	pop    %r12
  402319:	41 5d                	pop    %r13
  40231b:	c3                   	retq   

000000000040231c <rio_read>:
  40231c:	41 55                	push   %r13
  40231e:	41 54                	push   %r12
  402320:	55                   	push   %rbp
  402321:	53                   	push   %rbx
  402322:	48 83 ec 08          	sub    $0x8,%rsp
  402326:	48 89 fb             	mov    %rdi,%rbx
  402329:	49 89 f5             	mov    %rsi,%r13
  40232c:	49 89 d4             	mov    %rdx,%r12
  40232f:	eb 2e                	jmp    40235f <rio_read+0x43>
  402331:	48 8d 6b 10          	lea    0x10(%rbx),%rbp
  402335:	ba 00 20 00 00       	mov    $0x2000,%edx
  40233a:	48 89 ee             	mov    %rbp,%rsi
  40233d:	8b 3b                	mov    (%rbx),%edi
  40233f:	e8 3c eb ff ff       	callq  400e80 <read@plt>
  402344:	89 43 04             	mov    %eax,0x4(%rbx)
  402347:	85 c0                	test   %eax,%eax
  402349:	79 0c                	jns    402357 <rio_read+0x3b>
  40234b:	e8 80 ea ff ff       	callq  400dd0 <__errno_location@plt>
  402350:	83 38 04             	cmpl   $0x4,(%rax)
  402353:	74 0a                	je     40235f <rio_read+0x43>
  402355:	eb 37                	jmp    40238e <rio_read+0x72>
  402357:	85 c0                	test   %eax,%eax
  402359:	74 3c                	je     402397 <rio_read+0x7b>
  40235b:	48 89 6b 08          	mov    %rbp,0x8(%rbx)
  40235f:	8b 6b 04             	mov    0x4(%rbx),%ebp
  402362:	85 ed                	test   %ebp,%ebp
  402364:	7e cb                	jle    402331 <rio_read+0x15>
  402366:	89 e8                	mov    %ebp,%eax
  402368:	49 39 c4             	cmp    %rax,%r12
  40236b:	77 03                	ja     402370 <rio_read+0x54>
  40236d:	44 89 e5             	mov    %r12d,%ebp
  402370:	4c 63 e5             	movslq %ebp,%r12
  402373:	48 8b 73 08          	mov    0x8(%rbx),%rsi
  402377:	4c 89 e2             	mov    %r12,%rdx
  40237a:	4c 89 ef             	mov    %r13,%rdi
  40237d:	e8 5e eb ff ff       	callq  400ee0 <memcpy@plt>
  402382:	4c 01 63 08          	add    %r12,0x8(%rbx)
  402386:	29 6b 04             	sub    %ebp,0x4(%rbx)
  402389:	4c 89 e0             	mov    %r12,%rax
  40238c:	eb 0e                	jmp    40239c <rio_read+0x80>
  40238e:	48 c7 c0 ff ff ff ff 	mov    $0xffffffffffffffff,%rax
  402395:	eb 05                	jmp    40239c <rio_read+0x80>
  402397:	b8 00 00 00 00       	mov    $0x0,%eax
  40239c:	48 83 c4 08          	add    $0x8,%rsp
  4023a0:	5b                   	pop    %rbx
  4023a1:	5d                   	pop    %rbp
  4023a2:	41 5c                	pop    %r12
  4023a4:	41 5d                	pop    %r13
  4023a6:	c3                   	retq   

00000000004023a7 <rio_readlineb>:
  4023a7:	41 55                	push   %r13
  4023a9:	41 54                	push   %r12
  4023ab:	55                   	push   %rbp
  4023ac:	53                   	push   %rbx
  4023ad:	48 83 ec 18          	sub    $0x18,%rsp
  4023b1:	49 89 fd             	mov    %rdi,%r13
  4023b4:	48 89 f5             	mov    %rsi,%rbp
  4023b7:	49 89 d4             	mov    %rdx,%r12
  4023ba:	bb 01 00 00 00       	mov    $0x1,%ebx
  4023bf:	eb 3f                	jmp    402400 <rio_readlineb+0x59>
  4023c1:	ba 01 00 00 00       	mov    $0x1,%edx
  4023c6:	48 8d 74 24 0f       	lea    0xf(%rsp),%rsi
  4023cb:	4c 89 ef             	mov    %r13,%rdi
  4023ce:	e8 49 ff ff ff       	callq  40231c <rio_read>
  4023d3:	83 f8 01             	cmp    $0x1,%eax
  4023d6:	75 15                	jne    4023ed <rio_readlineb+0x46>
  4023d8:	48 8d 45 01          	lea    0x1(%rbp),%rax
  4023dc:	0f b6 54 24 0f       	movzbl 0xf(%rsp),%edx
  4023e1:	88 55 00             	mov    %dl,0x0(%rbp)
  4023e4:	80 7c 24 0f 0a       	cmpb   $0xa,0xf(%rsp)
  4023e9:	75 0e                	jne    4023f9 <rio_readlineb+0x52>
  4023eb:	eb 1a                	jmp    402407 <rio_readlineb+0x60>
  4023ed:	85 c0                	test   %eax,%eax
  4023ef:	75 22                	jne    402413 <rio_readlineb+0x6c>
  4023f1:	48 83 fb 01          	cmp    $0x1,%rbx
  4023f5:	75 13                	jne    40240a <rio_readlineb+0x63>
  4023f7:	eb 23                	jmp    40241c <rio_readlineb+0x75>
  4023f9:	48 83 c3 01          	add    $0x1,%rbx
  4023fd:	48 89 c5             	mov    %rax,%rbp
  402400:	4c 39 e3             	cmp    %r12,%rbx
  402403:	72 bc                	jb     4023c1 <rio_readlineb+0x1a>
  402405:	eb 03                	jmp    40240a <rio_readlineb+0x63>
  402407:	48 89 c5             	mov    %rax,%rbp
  40240a:	c6 45 00 00          	movb   $0x0,0x0(%rbp)
  40240e:	48 89 d8             	mov    %rbx,%rax
  402411:	eb 0e                	jmp    402421 <rio_readlineb+0x7a>
  402413:	48 c7 c0 ff ff ff ff 	mov    $0xffffffffffffffff,%rax
  40241a:	eb 05                	jmp    402421 <rio_readlineb+0x7a>
  40241c:	b8 00 00 00 00       	mov    $0x0,%eax
  402421:	48 83 c4 18          	add    $0x18,%rsp
  402425:	5b                   	pop    %rbx
  402426:	5d                   	pop    %rbp
  402427:	41 5c                	pop    %r12
  402429:	41 5d                	pop    %r13
  40242b:	c3                   	retq   

000000000040242c <submitr>:
  40242c:	41 57                	push   %r15
  40242e:	41 56                	push   %r14
  402430:	41 55                	push   %r13
  402432:	41 54                	push   %r12
  402434:	55                   	push   %rbp
  402435:	53                   	push   %rbx
  402436:	48 81 ec 48 a0 00 00 	sub    $0xa048,%rsp
  40243d:	49 89 fc             	mov    %rdi,%r12
  402440:	89 74 24 04          	mov    %esi,0x4(%rsp)
  402444:	49 89 d7             	mov    %rdx,%r15
  402447:	49 89 ce             	mov    %rcx,%r14
  40244a:	4c 89 44 24 08       	mov    %r8,0x8(%rsp)
  40244f:	4d 89 cd             	mov    %r9,%r13
  402452:	48 8b 9c 24 80 a0 00 	mov    0xa080(%rsp),%rbx
  402459:	00 
  40245a:	c7 84 24 1c 20 00 00 	movl   $0x0,0x201c(%rsp)
  402461:	00 00 00 00 
  402465:	ba 00 00 00 00       	mov    $0x0,%edx
  40246a:	be 01 00 00 00       	mov    $0x1,%esi
  40246f:	bf 02 00 00 00       	mov    $0x2,%edi
  402474:	e8 47 eb ff ff       	callq  400fc0 <socket@plt>
  402479:	85 c0                	test   %eax,%eax
  40247b:	79 4e                	jns    4024cb <submitr+0x9f>
  40247d:	48 b8 45 72 72 6f 72 	movabs $0x43203a726f727245,%rax
  402484:	3a 20 43 
  402487:	48 89 03             	mov    %rax,(%rbx)
  40248a:	48 b8 6c 69 65 6e 74 	movabs $0x6e7520746e65696c,%rax
  402491:	20 75 6e 
  402494:	48 89 43 08          	mov    %rax,0x8(%rbx)
  402498:	48 b8 61 62 6c 65 20 	movabs $0x206f7420656c6261,%rax
  40249f:	74 6f 20 
  4024a2:	48 89 43 10          	mov    %rax,0x10(%rbx)
  4024a6:	48 b8 63 72 65 61 74 	movabs $0x7320657461657263,%rax
  4024ad:	65 20 73 
  4024b0:	48 89 43 18          	mov    %rax,0x18(%rbx)
  4024b4:	c7 43 20 6f 63 6b 65 	movl   $0x656b636f,0x20(%rbx)
  4024bb:	66 c7 43 24 74 00    	movw   $0x74,0x24(%rbx)
  4024c1:	b8 ff ff ff ff       	mov    $0xffffffff,%eax
  4024c6:	e9 94 06 00 00       	jmpq   402b5f <submitr+0x733>
  4024cb:	89 c5                	mov    %eax,%ebp
  4024cd:	4c 89 e7             	mov    %r12,%rdi
  4024d0:	e8 db e9 ff ff       	callq  400eb0 <gethostbyname@plt>
  4024d5:	48 85 c0             	test   %rax,%rax
  4024d8:	75 67                	jne    402541 <submitr+0x115>
  4024da:	48 b8 45 72 72 6f 72 	movabs $0x44203a726f727245,%rax
  4024e1:	3a 20 44 
  4024e4:	48 89 03             	mov    %rax,(%rbx)
  4024e7:	48 b8 4e 53 20 69 73 	movabs $0x6e7520736920534e,%rax
  4024ee:	20 75 6e 
  4024f1:	48 89 43 08          	mov    %rax,0x8(%rbx)
  4024f5:	48 b8 61 62 6c 65 20 	movabs $0x206f7420656c6261,%rax
  4024fc:	74 6f 20 
  4024ff:	48 89 43 10          	mov    %rax,0x10(%rbx)
  402503:	48 b8 72 65 73 6f 6c 	movabs $0x2065766c6f736572,%rax
  40250a:	76 65 20 
  40250d:	48 89 43 18          	mov    %rax,0x18(%rbx)
  402511:	48 b8 73 65 72 76 65 	movabs $0x6120726576726573,%rax
  402518:	72 20 61 
  40251b:	48 89 43 20          	mov    %rax,0x20(%rbx)
  40251f:	c7 43 28 64 64 72 65 	movl   $0x65726464,0x28(%rbx)
  402526:	66 c7 43 2c 73 73    	movw   $0x7373,0x2c(%rbx)
  40252c:	c6 43 2e 00          	movb   $0x0,0x2e(%rbx)
  402530:	89 ef                	mov    %ebp,%edi
  402532:	e8 39 e9 ff ff       	callq  400e70 <close@plt>
  402537:	b8 ff ff ff ff       	mov    $0xffffffff,%eax
  40253c:	e9 1e 06 00 00       	jmpq   402b5f <submitr+0x733>
  402541:	48 c7 84 24 30 a0 00 	movq   $0x0,0xa030(%rsp)
  402548:	00 00 00 00 00 
  40254d:	48 c7 84 24 38 a0 00 	movq   $0x0,0xa038(%rsp)
  402554:	00 00 00 00 00 
  402559:	66 c7 84 24 30 a0 00 	movw   $0x2,0xa030(%rsp)
  402560:	00 02 00 
  402563:	48 8b 48 18          	mov    0x18(%rax),%rcx
  402567:	48 63 50 14          	movslq 0x14(%rax),%rdx
  40256b:	48 8d b4 24 34 a0 00 	lea    0xa034(%rsp),%rsi
  402572:	00 
  402573:	48 8b 39             	mov    (%rcx),%rdi
  402576:	e8 c5 e9 ff ff       	callq  400f40 <bcopy@plt>
  40257b:	0f b7 44 24 04       	movzwl 0x4(%rsp),%eax
  402580:	66 c1 c8 08          	ror    $0x8,%ax
  402584:	66 89 84 24 32 a0 00 	mov    %ax,0xa032(%rsp)
  40258b:	00 
  40258c:	ba 10 00 00 00       	mov    $0x10,%edx
  402591:	48 8d b4 24 30 a0 00 	lea    0xa030(%rsp),%rsi
  402598:	00 
  402599:	89 ef                	mov    %ebp,%edi
  40259b:	e8 10 ea ff ff       	callq  400fb0 <connect@plt>
  4025a0:	85 c0                	test   %eax,%eax
  4025a2:	79 59                	jns    4025fd <submitr+0x1d1>
  4025a4:	48 b8 45 72 72 6f 72 	movabs $0x55203a726f727245,%rax
  4025ab:	3a 20 55 
  4025ae:	48 89 03             	mov    %rax,(%rbx)
  4025b1:	48 b8 6e 61 62 6c 65 	movabs $0x6f7420656c62616e,%rax
  4025b8:	20 74 6f 
  4025bb:	48 89 43 08          	mov    %rax,0x8(%rbx)
  4025bf:	48 b8 20 63 6f 6e 6e 	movabs $0x7463656e6e6f6320,%rax
  4025c6:	65 63 74 
  4025c9:	48 89 43 10          	mov    %rax,0x10(%rbx)
  4025cd:	48 b8 20 74 6f 20 74 	movabs $0x20656874206f7420,%rax
  4025d4:	68 65 20 
  4025d7:	48 89 43 18          	mov    %rax,0x18(%rbx)
  4025db:	c7 43 20 73 65 72 76 	movl   $0x76726573,0x20(%rbx)
  4025e2:	66 c7 43 24 65 72    	movw   $0x7265,0x24(%rbx)
  4025e8:	c6 43 26 00          	movb   $0x0,0x26(%rbx)
  4025ec:	89 ef                	mov    %ebp,%edi
  4025ee:	e8 7d e8 ff ff       	callq  400e70 <close@plt>
  4025f3:	b8 ff ff ff ff       	mov    $0xffffffff,%eax
  4025f8:	e9 62 05 00 00       	jmpq   402b5f <submitr+0x733>
  4025fd:	48 c7 c6 ff ff ff ff 	mov    $0xffffffffffffffff,%rsi
  402604:	b8 00 00 00 00       	mov    $0x0,%eax
  402609:	48 89 f1             	mov    %rsi,%rcx
  40260c:	4c 89 ef             	mov    %r13,%rdi
  40260f:	f2 ae                	repnz scas %es:(%rdi),%al
  402611:	48 f7 d1             	not    %rcx
  402614:	48 89 ca             	mov    %rcx,%rdx
  402617:	48 89 f1             	mov    %rsi,%rcx
  40261a:	4c 89 ff             	mov    %r15,%rdi
  40261d:	f2 ae                	repnz scas %es:(%rdi),%al
  40261f:	48 f7 d1             	not    %rcx
  402622:	49 89 c8             	mov    %rcx,%r8
  402625:	48 89 f1             	mov    %rsi,%rcx
  402628:	4c 89 f7             	mov    %r14,%rdi
  40262b:	f2 ae                	repnz scas %es:(%rdi),%al
  40262d:	48 f7 d1             	not    %rcx
  402630:	4d 8d 44 08 fe       	lea    -0x2(%r8,%rcx,1),%r8
  402635:	48 89 f1             	mov    %rsi,%rcx
  402638:	48 8b 7c 24 08       	mov    0x8(%rsp),%rdi
  40263d:	f2 ae                	repnz scas %es:(%rdi),%al
  40263f:	48 89 c8             	mov    %rcx,%rax
  402642:	48 f7 d0             	not    %rax
  402645:	49 8d 4c 00 ff       	lea    -0x1(%r8,%rax,1),%rcx
  40264a:	48 8d 44 52 fd       	lea    -0x3(%rdx,%rdx,2),%rax
  40264f:	48 8d 84 01 80 00 00 	lea    0x80(%rcx,%rax,1),%rax
  402656:	00 
  402657:	48 3d 00 20 00 00    	cmp    $0x2000,%rax
  40265d:	76 72                	jbe    4026d1 <submitr+0x2a5>
  40265f:	48 b8 45 72 72 6f 72 	movabs $0x52203a726f727245,%rax
  402666:	3a 20 52 
  402669:	48 89 03             	mov    %rax,(%rbx)
  40266c:	48 b8 65 73 75 6c 74 	movabs $0x747320746c757365,%rax
  402673:	20 73 74 
  402676:	48 89 43 08          	mov    %rax,0x8(%rbx)
  40267a:	48 b8 72 69 6e 67 20 	movabs $0x6f6f7420676e6972,%rax
  402681:	74 6f 6f 
  402684:	48 89 43 10          	mov    %rax,0x10(%rbx)
  402688:	48 b8 20 6c 61 72 67 	movabs $0x202e656772616c20,%rax
  40268f:	65 2e 20 
  402692:	48 89 43 18          	mov    %rax,0x18(%rbx)
  402696:	48 b8 49 6e 63 72 65 	movabs $0x6573616572636e49,%rax
  40269d:	61 73 65 
  4026a0:	48 89 43 20          	mov    %rax,0x20(%rbx)
  4026a4:	48 b8 20 53 55 42 4d 	movabs $0x5254494d42555320,%rax
  4026ab:	49 54 52 
  4026ae:	48 89 43 28          	mov    %rax,0x28(%rbx)
  4026b2:	48 b8 5f 4d 41 58 42 	movabs $0x46554258414d5f,%rax
  4026b9:	55 46 00 
  4026bc:	48 89 43 30          	mov    %rax,0x30(%rbx)
  4026c0:	89 ef                	mov    %ebp,%edi
  4026c2:	e8 a9 e7 ff ff       	callq  400e70 <close@plt>
  4026c7:	b8 ff ff ff ff       	mov    $0xffffffff,%eax
  4026cc:	e9 8e 04 00 00       	jmpq   402b5f <submitr+0x733>
  4026d1:	48 8d b4 24 20 40 00 	lea    0x4020(%rsp),%rsi
  4026d8:	00 
  4026d9:	b9 00 04 00 00       	mov    $0x400,%ecx
  4026de:	b8 00 00 00 00       	mov    $0x0,%eax
  4026e3:	48 89 f7             	mov    %rsi,%rdi
  4026e6:	f3 48 ab             	rep stos %rax,%es:(%rdi)
  4026e9:	4c 89 ef             	mov    %r13,%rdi
  4026ec:	e8 f9 fa ff ff       	callq  4021ea <urlencode>
  4026f1:	85 c0                	test   %eax,%eax
  4026f3:	0f 89 8a 00 00 00    	jns    402783 <submitr+0x357>
  4026f9:	48 b8 45 72 72 6f 72 	movabs $0x52203a726f727245,%rax
  402700:	3a 20 52 
  402703:	48 89 03             	mov    %rax,(%rbx)
  402706:	48 b8 65 73 75 6c 74 	movabs $0x747320746c757365,%rax
  40270d:	20 73 74 
  402710:	48 89 43 08          	mov    %rax,0x8(%rbx)
  402714:	48 b8 72 69 6e 67 20 	movabs $0x6e6f6320676e6972,%rax
  40271b:	63 6f 6e 
  40271e:	48 89 43 10          	mov    %rax,0x10(%rbx)
  402722:	48 b8 74 61 69 6e 73 	movabs $0x6e6120736e696174,%rax
  402729:	20 61 6e 
  40272c:	48 89 43 18          	mov    %rax,0x18(%rbx)
  402730:	48 b8 20 69 6c 6c 65 	movabs $0x6c6167656c6c6920,%rax
  402737:	67 61 6c 
  40273a:	48 89 43 20          	mov    %rax,0x20(%rbx)
  40273e:	48 b8 20 6f 72 20 75 	movabs $0x72706e7520726f20,%rax
  402745:	6e 70 72 
  402748:	48 89 43 28          	mov    %rax,0x28(%rbx)
  40274c:	48 b8 69 6e 74 61 62 	movabs $0x20656c6261746e69,%rax
  402753:	6c 65 20 
  402756:	48 89 43 30          	mov    %rax,0x30(%rbx)
  40275a:	48 b8 63 68 61 72 61 	movabs $0x6574636172616863,%rax
  402761:	63 74 65 
  402764:	48 89 43 38          	mov    %rax,0x38(%rbx)
  402768:	66 c7 43 40 72 2e    	movw   $0x2e72,0x40(%rbx)
  40276e:	c6 43 42 00          	movb   $0x0,0x42(%rbx)
  402772:	89 ef                	mov    %ebp,%edi
  402774:	e8 f7 e6 ff ff       	callq  400e70 <close@plt>
  402779:	b8 ff ff ff ff       	mov    $0xffffffff,%eax
  40277e:	e9 dc 03 00 00       	jmpq   402b5f <submitr+0x733>
  402783:	4c 8d ac 24 20 60 00 	lea    0x6020(%rsp),%r13
  40278a:	00 
  40278b:	4d 89 e1             	mov    %r12,%r9
  40278e:	4c 8d 84 24 20 40 00 	lea    0x4020(%rsp),%r8
  402795:	00 
  402796:	4c 89 f9             	mov    %r15,%rcx
  402799:	4c 89 f2             	mov    %r14,%rdx
  40279c:	be 58 36 40 00       	mov    $0x403658,%esi
  4027a1:	4c 89 ef             	mov    %r13,%rdi
  4027a4:	b8 00 00 00 00       	mov    $0x0,%eax
  4027a9:	e8 e2 e7 ff ff       	callq  400f90 <sprintf@plt>
  4027ae:	b8 00 00 00 00       	mov    $0x0,%eax
  4027b3:	48 c7 c1 ff ff ff ff 	mov    $0xffffffffffffffff,%rcx
  4027ba:	4c 89 ef             	mov    %r13,%rdi
  4027bd:	f2 ae                	repnz scas %es:(%rdi),%al
  4027bf:	48 f7 d1             	not    %rcx
  4027c2:	48 8d 51 ff          	lea    -0x1(%rcx),%rdx
  4027c6:	4c 89 ee             	mov    %r13,%rsi
  4027c9:	89 ef                	mov    %ebp,%edi
  4027cb:	e8 f0 fa ff ff       	callq  4022c0 <rio_writen>
  4027d0:	48 85 c0             	test   %rax,%rax
  4027d3:	79 6e                	jns    402843 <submitr+0x417>
  4027d5:	48 b8 45 72 72 6f 72 	movabs $0x43203a726f727245,%rax
  4027dc:	3a 20 43 
  4027df:	48 89 03             	mov    %rax,(%rbx)
  4027e2:	48 b8 6c 69 65 6e 74 	movabs $0x6e7520746e65696c,%rax
  4027e9:	20 75 6e 
  4027ec:	48 89 43 08          	mov    %rax,0x8(%rbx)
  4027f0:	48 b8 61 62 6c 65 20 	movabs $0x206f7420656c6261,%rax
  4027f7:	74 6f 20 
  4027fa:	48 89 43 10          	mov    %rax,0x10(%rbx)
  4027fe:	48 b8 77 72 69 74 65 	movabs $0x6f74206574697277,%rax
  402805:	20 74 6f 
  402808:	48 89 43 18          	mov    %rax,0x18(%rbx)
  40280c:	48 b8 20 74 68 65 20 	movabs $0x7365722065687420,%rax
  402813:	72 65 73 
  402816:	48 89 43 20          	mov    %rax,0x20(%rbx)
  40281a:	48 b8 75 6c 74 20 73 	movabs $0x7672657320746c75,%rax
  402821:	65 72 76 
  402824:	48 89 43 28          	mov    %rax,0x28(%rbx)
  402828:	66 c7 43 30 65 72    	movw   $0x7265,0x30(%rbx)
  40282e:	c6 43 32 00          	movb   $0x0,0x32(%rbx)
  402832:	89 ef                	mov    %ebp,%edi
  402834:	e8 37 e6 ff ff       	callq  400e70 <close@plt>
  402839:	b8 ff ff ff ff       	mov    $0xffffffff,%eax
  40283e:	e9 1c 03 00 00       	jmpq   402b5f <submitr+0x733>
  402843:	89 ee                	mov    %ebp,%esi
  402845:	48 8d bc 24 20 80 00 	lea    0x8020(%rsp),%rdi
  40284c:	00 
  40284d:	e8 5d f9 ff ff       	callq  4021af <rio_readinitb>
  402852:	ba 00 20 00 00       	mov    $0x2000,%edx
  402857:	48 8d b4 24 20 60 00 	lea    0x6020(%rsp),%rsi
  40285e:	00 
  40285f:	48 8d bc 24 20 80 00 	lea    0x8020(%rsp),%rdi
  402866:	00 
  402867:	e8 3b fb ff ff       	callq  4023a7 <rio_readlineb>
  40286c:	48 85 c0             	test   %rax,%rax
  40286f:	7f 7d                	jg     4028ee <submitr+0x4c2>
  402871:	48 b8 45 72 72 6f 72 	movabs $0x43203a726f727245,%rax
  402878:	3a 20 43 
  40287b:	48 89 03             	mov    %rax,(%rbx)
  40287e:	48 b8 6c 69 65 6e 74 	movabs $0x6e7520746e65696c,%rax
  402885:	20 75 6e 
  402888:	48 89 43 08          	mov    %rax,0x8(%rbx)
  40288c:	48 b8 61 62 6c 65 20 	movabs $0x206f7420656c6261,%rax
  402893:	74 6f 20 
  402896:	48 89 43 10          	mov    %rax,0x10(%rbx)
  40289a:	48 b8 72 65 61 64 20 	movabs $0x7269662064616572,%rax
  4028a1:	66 69 72 
  4028a4:	48 89 43 18          	mov    %rax,0x18(%rbx)
  4028a8:	48 b8 73 74 20 68 65 	movabs $0x6564616568207473,%rax
  4028af:	61 64 65 
  4028b2:	48 89 43 20          	mov    %rax,0x20(%rbx)
  4028b6:	48 b8 72 20 66 72 6f 	movabs $0x72206d6f72662072,%rax
  4028bd:	6d 20 72 
  4028c0:	48 89 43 28          	mov    %rax,0x28(%rbx)
  4028c4:	48 b8 65 73 75 6c 74 	movabs $0x657320746c757365,%rax
  4028cb:	20 73 65 
  4028ce:	48 89 43 30          	mov    %rax,0x30(%rbx)
  4028d2:	c7 43 38 72 76 65 72 	movl   $0x72657672,0x38(%rbx)
  4028d9:	c6 43 3c 00          	movb   $0x0,0x3c(%rbx)
  4028dd:	89 ef                	mov    %ebp,%edi
  4028df:	e8 8c e5 ff ff       	callq  400e70 <close@plt>
  4028e4:	b8 ff ff ff ff       	mov    $0xffffffff,%eax
  4028e9:	e9 71 02 00 00       	jmpq   402b5f <submitr+0x733>
  4028ee:	4c 8d 44 24 10       	lea    0x10(%rsp),%r8
  4028f3:	48 8d 8c 24 1c 20 00 	lea    0x201c(%rsp),%rcx
  4028fa:	00 
  4028fb:	48 8d 94 24 20 20 00 	lea    0x2020(%rsp),%rdx
  402902:	00 
  402903:	be cf 36 40 00       	mov    $0x4036cf,%esi
  402908:	48 8d bc 24 20 60 00 	lea    0x6020(%rsp),%rdi
  40290f:	00 
  402910:	b8 00 00 00 00       	mov    $0x0,%eax
  402915:	e8 06 e6 ff ff       	callq  400f20 <__isoc99_sscanf@plt>
  40291a:	e9 98 00 00 00       	jmpq   4029b7 <submitr+0x58b>
  40291f:	ba 00 20 00 00       	mov    $0x2000,%edx
  402924:	48 8d b4 24 20 60 00 	lea    0x6020(%rsp),%rsi
  40292b:	00 
  40292c:	48 8d bc 24 20 80 00 	lea    0x8020(%rsp),%rdi
  402933:	00 
  402934:	e8 6e fa ff ff       	callq  4023a7 <rio_readlineb>
  402939:	48 85 c0             	test   %rax,%rax
  40293c:	7f 79                	jg     4029b7 <submitr+0x58b>
  40293e:	48 b8 45 72 72 6f 72 	movabs $0x43203a726f727245,%rax
  402945:	3a 20 43 
  402948:	48 89 03             	mov    %rax,(%rbx)
  40294b:	48 b8 6c 69 65 6e 74 	movabs $0x6e7520746e65696c,%rax
  402952:	20 75 6e 
  402955:	48 89 43 08          	mov    %rax,0x8(%rbx)
  402959:	48 b8 61 62 6c 65 20 	movabs $0x206f7420656c6261,%rax
  402960:	74 6f 20 
  402963:	48 89 43 10          	mov    %rax,0x10(%rbx)
  402967:	48 b8 72 65 61 64 20 	movabs $0x6165682064616572,%rax
  40296e:	68 65 61 
  402971:	48 89 43 18          	mov    %rax,0x18(%rbx)
  402975:	48 b8 64 65 72 73 20 	movabs $0x6f72662073726564,%rax
  40297c:	66 72 6f 
  40297f:	48 89 43 20          	mov    %rax,0x20(%rbx)
  402983:	48 b8 6d 20 74 68 65 	movabs $0x657220656874206d,%rax
  40298a:	20 72 65 
  40298d:	48 89 43 28          	mov    %rax,0x28(%rbx)
  402991:	48 b8 73 75 6c 74 20 	movabs $0x72657320746c7573,%rax
  402998:	73 65 72 
  40299b:	48 89 43 30          	mov    %rax,0x30(%rbx)
  40299f:	c7 43 38 76 65 72 00 	movl   $0x726576,0x38(%rbx)
  4029a6:	89 ef                	mov    %ebp,%edi
  4029a8:	e8 c3 e4 ff ff       	callq  400e70 <close@plt>
  4029ad:	b8 ff ff ff ff       	mov    $0xffffffff,%eax
  4029b2:	e9 a8 01 00 00       	jmpq   402b5f <submitr+0x733>
  4029b7:	0f b6 94 24 20 60 00 	movzbl 0x6020(%rsp),%edx
  4029be:	00 
  4029bf:	b8 0d 00 00 00       	mov    $0xd,%eax
  4029c4:	29 d0                	sub    %edx,%eax
  4029c6:	75 1b                	jne    4029e3 <submitr+0x5b7>
  4029c8:	0f b6 94 24 21 60 00 	movzbl 0x6021(%rsp),%edx
  4029cf:	00 
  4029d0:	b8 0a 00 00 00       	mov    $0xa,%eax
  4029d5:	29 d0                	sub    %edx,%eax
  4029d7:	75 0a                	jne    4029e3 <submitr+0x5b7>
  4029d9:	0f b6 84 24 22 60 00 	movzbl 0x6022(%rsp),%eax
  4029e0:	00 
  4029e1:	f7 d8                	neg    %eax
  4029e3:	85 c0                	test   %eax,%eax
  4029e5:	0f 85 34 ff ff ff    	jne    40291f <submitr+0x4f3>
  4029eb:	ba 00 20 00 00       	mov    $0x2000,%edx
  4029f0:	48 8d b4 24 20 60 00 	lea    0x6020(%rsp),%rsi
  4029f7:	00 
  4029f8:	48 8d bc 24 20 80 00 	lea    0x8020(%rsp),%rdi
  4029ff:	00 
  402a00:	e8 a2 f9 ff ff       	callq  4023a7 <rio_readlineb>
  402a05:	48 85 c0             	test   %rax,%rax
  402a08:	0f 8f 83 00 00 00    	jg     402a91 <submitr+0x665>
  402a0e:	48 b8 45 72 72 6f 72 	movabs $0x43203a726f727245,%rax
  402a15:	3a 20 43 
  402a18:	48 89 03             	mov    %rax,(%rbx)
  402a1b:	48 b8 6c 69 65 6e 74 	movabs $0x6e7520746e65696c,%rax
  402a22:	20 75 6e 
  402a25:	48 89 43 08          	mov    %rax,0x8(%rbx)
  402a29:	48 b8 61 62 6c 65 20 	movabs $0x206f7420656c6261,%rax
  402a30:	74 6f 20 
  402a33:	48 89 43 10          	mov    %rax,0x10(%rbx)
  402a37:	48 b8 72 65 61 64 20 	movabs $0x6174732064616572,%rax
  402a3e:	73 74 61 
  402a41:	48 89 43 18          	mov    %rax,0x18(%rbx)
  402a45:	48 b8 74 75 73 20 6d 	movabs $0x7373656d20737574,%rax
  402a4c:	65 73 73 
  402a4f:	48 89 43 20          	mov    %rax,0x20(%rbx)
  402a53:	48 b8 61 67 65 20 66 	movabs $0x6d6f726620656761,%rax
  402a5a:	72 6f 6d 
  402a5d:	48 89 43 28          	mov    %rax,0x28(%rbx)
  402a61:	48 b8 20 72 65 73 75 	movabs $0x20746c7573657220,%rax
  402a68:	6c 74 20 
  402a6b:	48 89 43 30          	mov    %rax,0x30(%rbx)
  402a6f:	c7 43 38 73 65 72 76 	movl   $0x76726573,0x38(%rbx)
  402a76:	66 c7 43 3c 65 72    	movw   $0x7265,0x3c(%rbx)
  402a7c:	c6 43 3e 00          	movb   $0x0,0x3e(%rbx)
  402a80:	89 ef                	mov    %ebp,%edi
  402a82:	e8 e9 e3 ff ff       	callq  400e70 <close@plt>
  402a87:	b8 ff ff ff ff       	mov    $0xffffffff,%eax
  402a8c:	e9 ce 00 00 00       	jmpq   402b5f <submitr+0x733>
  402a91:	8b 94 24 1c 20 00 00 	mov    0x201c(%rsp),%edx
  402a98:	81 fa c8 00 00 00    	cmp    $0xc8,%edx
  402a9e:	74 28                	je     402ac8 <submitr+0x69c>
  402aa0:	48 8d 4c 24 10       	lea    0x10(%rsp),%rcx
  402aa5:	be 98 36 40 00       	mov    $0x403698,%esi
  402aaa:	48 89 df             	mov    %rbx,%rdi
  402aad:	b8 00 00 00 00       	mov    $0x0,%eax
  402ab2:	e8 d9 e4 ff ff       	callq  400f90 <sprintf@plt>
  402ab7:	89 ef                	mov    %ebp,%edi
  402ab9:	e8 b2 e3 ff ff       	callq  400e70 <close@plt>
  402abe:	b8 ff ff ff ff       	mov    $0xffffffff,%eax
  402ac3:	e9 97 00 00 00       	jmpq   402b5f <submitr+0x733>
  402ac8:	48 8d b4 24 20 60 00 	lea    0x6020(%rsp),%rsi
  402acf:	00 
  402ad0:	48 89 df             	mov    %rbx,%rdi
  402ad3:	e8 28 e3 ff ff       	callq  400e00 <strcpy@plt>
  402ad8:	89 ef                	mov    %ebp,%edi
  402ada:	e8 91 e3 ff ff       	callq  400e70 <close@plt>
  402adf:	0f b6 03             	movzbl (%rbx),%eax
  402ae2:	ba 4f 00 00 00       	mov    $0x4f,%edx
  402ae7:	29 c2                	sub    %eax,%edx
  402ae9:	75 22                	jne    402b0d <submitr+0x6e1>
  402aeb:	0f b6 4b 01          	movzbl 0x1(%rbx),%ecx
  402aef:	b8 4b 00 00 00       	mov    $0x4b,%eax
  402af4:	29 c8                	sub    %ecx,%eax
  402af6:	75 17                	jne    402b0f <submitr+0x6e3>
  402af8:	0f b6 4b 02          	movzbl 0x2(%rbx),%ecx
  402afc:	b8 0a 00 00 00       	mov    $0xa,%eax
  402b01:	29 c8                	sub    %ecx,%eax
  402b03:	75 0a                	jne    402b0f <submitr+0x6e3>
  402b05:	0f b6 43 03          	movzbl 0x3(%rbx),%eax
  402b09:	f7 d8                	neg    %eax
  402b0b:	eb 02                	jmp    402b0f <submitr+0x6e3>
  402b0d:	89 d0                	mov    %edx,%eax
  402b0f:	85 c0                	test   %eax,%eax
  402b11:	74 40                	je     402b53 <submitr+0x727>
  402b13:	bf e0 36 40 00       	mov    $0x4036e0,%edi
  402b18:	b9 05 00 00 00       	mov    $0x5,%ecx
  402b1d:	48 89 de             	mov    %rbx,%rsi
  402b20:	f3 a6                	repz cmpsb %es:(%rdi),%ds:(%rsi)
  402b22:	0f 97 c0             	seta   %al
  402b25:	0f 92 c1             	setb   %cl
  402b28:	29 c8                	sub    %ecx,%eax
  402b2a:	0f be c0             	movsbl %al,%eax
  402b2d:	85 c0                	test   %eax,%eax
  402b2f:	74 2e                	je     402b5f <submitr+0x733>
  402b31:	85 d2                	test   %edx,%edx
  402b33:	75 13                	jne    402b48 <submitr+0x71c>
  402b35:	0f b6 43 01          	movzbl 0x1(%rbx),%eax
  402b39:	ba 4b 00 00 00       	mov    $0x4b,%edx
  402b3e:	29 c2                	sub    %eax,%edx
  402b40:	75 06                	jne    402b48 <submitr+0x71c>
  402b42:	0f b6 53 02          	movzbl 0x2(%rbx),%edx
  402b46:	f7 da                	neg    %edx
  402b48:	85 d2                	test   %edx,%edx
  402b4a:	75 0e                	jne    402b5a <submitr+0x72e>
  402b4c:	b8 00 00 00 00       	mov    $0x0,%eax
  402b51:	eb 0c                	jmp    402b5f <submitr+0x733>
  402b53:	b8 00 00 00 00       	mov    $0x0,%eax
  402b58:	eb 05                	jmp    402b5f <submitr+0x733>
  402b5a:	b8 ff ff ff ff       	mov    $0xffffffff,%eax
  402b5f:	48 81 c4 48 a0 00 00 	add    $0xa048,%rsp
  402b66:	5b                   	pop    %rbx
  402b67:	5d                   	pop    %rbp
  402b68:	41 5c                	pop    %r12
  402b6a:	41 5d                	pop    %r13
  402b6c:	41 5e                	pop    %r14
  402b6e:	41 5f                	pop    %r15
  402b70:	c3                   	retq   

0000000000402b71 <init_timeout>:
  402b71:	85 ff                	test   %edi,%edi
  402b73:	74 23                	je     402b98 <init_timeout+0x27>
  402b75:	53                   	push   %rbx
  402b76:	89 fb                	mov    %edi,%ebx
  402b78:	85 ff                	test   %edi,%edi
  402b7a:	79 05                	jns    402b81 <init_timeout+0x10>
  402b7c:	bb 00 00 00 00       	mov    $0x0,%ebx
  402b81:	be c1 21 40 00       	mov    $0x4021c1,%esi
  402b86:	bf 0e 00 00 00       	mov    $0xe,%edi
  402b8b:	e8 10 e3 ff ff       	callq  400ea0 <signal@plt>
  402b90:	89 df                	mov    %ebx,%edi
  402b92:	e8 c9 e2 ff ff       	callq  400e60 <alarm@plt>
  402b97:	5b                   	pop    %rbx
  402b98:	f3 c3                	repz retq 

0000000000402b9a <init_driver>:
  402b9a:	55                   	push   %rbp
  402b9b:	53                   	push   %rbx
  402b9c:	48 83 ec 18          	sub    $0x18,%rsp
  402ba0:	48 89 fd             	mov    %rdi,%rbp
  402ba3:	be 01 00 00 00       	mov    $0x1,%esi
  402ba8:	bf 0d 00 00 00       	mov    $0xd,%edi
  402bad:	e8 ee e2 ff ff       	callq  400ea0 <signal@plt>
  402bb2:	be 01 00 00 00       	mov    $0x1,%esi
  402bb7:	bf 1d 00 00 00       	mov    $0x1d,%edi
  402bbc:	e8 df e2 ff ff       	callq  400ea0 <signal@plt>
  402bc1:	be 01 00 00 00       	mov    $0x1,%esi
  402bc6:	bf 1d 00 00 00       	mov    $0x1d,%edi
  402bcb:	e8 d0 e2 ff ff       	callq  400ea0 <signal@plt>
  402bd0:	ba 00 00 00 00       	mov    $0x0,%edx
  402bd5:	be 01 00 00 00       	mov    $0x1,%esi
  402bda:	bf 02 00 00 00       	mov    $0x2,%edi
  402bdf:	e8 dc e3 ff ff       	callq  400fc0 <socket@plt>
  402be4:	85 c0                	test   %eax,%eax
  402be6:	79 4f                	jns    402c37 <init_driver+0x9d>
  402be8:	48 b8 45 72 72 6f 72 	movabs $0x43203a726f727245,%rax
  402bef:	3a 20 43 
  402bf2:	48 89 45 00          	mov    %rax,0x0(%rbp)
  402bf6:	48 b8 6c 69 65 6e 74 	movabs $0x6e7520746e65696c,%rax
  402bfd:	20 75 6e 
  402c00:	48 89 45 08          	mov    %rax,0x8(%rbp)
  402c04:	48 b8 61 62 6c 65 20 	movabs $0x206f7420656c6261,%rax
  402c0b:	74 6f 20 
  402c0e:	48 89 45 10          	mov    %rax,0x10(%rbp)
  402c12:	48 b8 63 72 65 61 74 	movabs $0x7320657461657263,%rax
  402c19:	65 20 73 
  402c1c:	48 89 45 18          	mov    %rax,0x18(%rbp)
  402c20:	c7 45 20 6f 63 6b 65 	movl   $0x656b636f,0x20(%rbp)
  402c27:	66 c7 45 24 74 00    	movw   $0x74,0x24(%rbp)
  402c2d:	b8 ff ff ff ff       	mov    $0xffffffff,%eax
  402c32:	e9 25 01 00 00       	jmpq   402d5c <init_driver+0x1c2>
  402c37:	89 c3                	mov    %eax,%ebx
  402c39:	bf e5 36 40 00       	mov    $0x4036e5,%edi
  402c3e:	e8 6d e2 ff ff       	callq  400eb0 <gethostbyname@plt>
  402c43:	48 85 c0             	test   %rax,%rax
  402c46:	75 68                	jne    402cb0 <init_driver+0x116>
  402c48:	48 b8 45 72 72 6f 72 	movabs $0x44203a726f727245,%rax
  402c4f:	3a 20 44 
  402c52:	48 89 45 00          	mov    %rax,0x0(%rbp)
  402c56:	48 b8 4e 53 20 69 73 	movabs $0x6e7520736920534e,%rax
  402c5d:	20 75 6e 
  402c60:	48 89 45 08          	mov    %rax,0x8(%rbp)
  402c64:	48 b8 61 62 6c 65 20 	movabs $0x206f7420656c6261,%rax
  402c6b:	74 6f 20 
  402c6e:	48 89 45 10          	mov    %rax,0x10(%rbp)
  402c72:	48 b8 72 65 73 6f 6c 	movabs $0x2065766c6f736572,%rax
  402c79:	76 65 20 
  402c7c:	48 89 45 18          	mov    %rax,0x18(%rbp)
  402c80:	48 b8 73 65 72 76 65 	movabs $0x6120726576726573,%rax
  402c87:	72 20 61 
  402c8a:	48 89 45 20          	mov    %rax,0x20(%rbp)
  402c8e:	c7 45 28 64 64 72 65 	movl   $0x65726464,0x28(%rbp)
  402c95:	66 c7 45 2c 73 73    	movw   $0x7373,0x2c(%rbp)
  402c9b:	c6 45 2e 00          	movb   $0x0,0x2e(%rbp)
  402c9f:	89 df                	mov    %ebx,%edi
  402ca1:	e8 ca e1 ff ff       	callq  400e70 <close@plt>
  402ca6:	b8 ff ff ff ff       	mov    $0xffffffff,%eax
  402cab:	e9 ac 00 00 00       	jmpq   402d5c <init_driver+0x1c2>
  402cb0:	48 c7 04 24 00 00 00 	movq   $0x0,(%rsp)
  402cb7:	00 
  402cb8:	48 c7 44 24 08 00 00 	movq   $0x0,0x8(%rsp)
  402cbf:	00 00 
  402cc1:	66 c7 04 24 02 00    	movw   $0x2,(%rsp)
  402cc7:	48 8b 48 18          	mov    0x18(%rax),%rcx
  402ccb:	48 63 50 14          	movslq 0x14(%rax),%rdx
  402ccf:	48 8d 74 24 04       	lea    0x4(%rsp),%rsi
  402cd4:	48 8b 39             	mov    (%rcx),%rdi
  402cd7:	e8 64 e2 ff ff       	callq  400f40 <bcopy@plt>
  402cdc:	66 c7 44 24 02 3c 9a 	movw   $0x9a3c,0x2(%rsp)
  402ce3:	ba 10 00 00 00       	mov    $0x10,%edx
  402ce8:	48 89 e6             	mov    %rsp,%rsi
  402ceb:	89 df                	mov    %ebx,%edi
  402ced:	e8 be e2 ff ff       	callq  400fb0 <connect@plt>
  402cf2:	85 c0                	test   %eax,%eax
  402cf4:	79 50                	jns    402d46 <init_driver+0x1ac>
  402cf6:	48 b8 45 72 72 6f 72 	movabs $0x55203a726f727245,%rax
  402cfd:	3a 20 55 
  402d00:	48 89 45 00          	mov    %rax,0x0(%rbp)
  402d04:	48 b8 6e 61 62 6c 65 	movabs $0x6f7420656c62616e,%rax
  402d0b:	20 74 6f 
  402d0e:	48 89 45 08          	mov    %rax,0x8(%rbp)
  402d12:	48 b8 20 63 6f 6e 6e 	movabs $0x7463656e6e6f6320,%rax
  402d19:	65 63 74 
  402d1c:	48 89 45 10          	mov    %rax,0x10(%rbp)
  402d20:	48 b8 20 74 6f 20 73 	movabs $0x76726573206f7420,%rax
  402d27:	65 72 76 
  402d2a:	48 89 45 18          	mov    %rax,0x18(%rbp)
  402d2e:	66 c7 45 20 65 72    	movw   $0x7265,0x20(%rbp)
  402d34:	c6 45 22 00          	movb   $0x0,0x22(%rbp)
  402d38:	89 df                	mov    %ebx,%edi
  402d3a:	e8 31 e1 ff ff       	callq  400e70 <close@plt>
  402d3f:	b8 ff ff ff ff       	mov    $0xffffffff,%eax
  402d44:	eb 16                	jmp    402d5c <init_driver+0x1c2>
  402d46:	89 df                	mov    %ebx,%edi
  402d48:	e8 23 e1 ff ff       	callq  400e70 <close@plt>
  402d4d:	66 c7 45 00 4f 4b    	movw   $0x4b4f,0x0(%rbp)
  402d53:	c6 45 02 00          	movb   $0x0,0x2(%rbp)
  402d57:	b8 00 00 00 00       	mov    $0x0,%eax
  402d5c:	48 83 c4 18          	add    $0x18,%rsp
  402d60:	5b                   	pop    %rbx
  402d61:	5d                   	pop    %rbp
  402d62:	c3                   	retq   

0000000000402d63 <driver_post>:
  402d63:	53                   	push   %rbx
  402d64:	4c 89 cb             	mov    %r9,%rbx
  402d67:	45 85 c0             	test   %r8d,%r8d
  402d6a:	74 22                	je     402d8e <driver_post+0x2b>
  402d6c:	48 89 ce             	mov    %rcx,%rsi
  402d6f:	bf fd 36 40 00       	mov    $0x4036fd,%edi
  402d74:	b8 00 00 00 00       	mov    $0x0,%eax
  402d79:	e8 c2 e0 ff ff       	callq  400e40 <printf@plt>
  402d7e:	66 c7 03 4f 4b       	movw   $0x4b4f,(%rbx)
  402d83:	c6 43 02 00          	movb   $0x0,0x2(%rbx)
  402d87:	b8 00 00 00 00       	mov    $0x0,%eax
  402d8c:	eb 3f                	jmp    402dcd <driver_post+0x6a>
  402d8e:	48 85 ff             	test   %rdi,%rdi
  402d91:	74 2c                	je     402dbf <driver_post+0x5c>
  402d93:	80 3f 00             	cmpb   $0x0,(%rdi)
  402d96:	74 27                	je     402dbf <driver_post+0x5c>
  402d98:	48 83 ec 08          	sub    $0x8,%rsp
  402d9c:	41 51                	push   %r9
  402d9e:	49 89 c9             	mov    %rcx,%r9
  402da1:	49 89 d0             	mov    %rdx,%r8
  402da4:	48 89 f9             	mov    %rdi,%rcx
  402da7:	48 89 f2             	mov    %rsi,%rdx
  402daa:	be 9a 3c 00 00       	mov    $0x3c9a,%esi
  402daf:	bf e5 36 40 00       	mov    $0x4036e5,%edi
  402db4:	e8 73 f6 ff ff       	callq  40242c <submitr>
  402db9:	48 83 c4 10          	add    $0x10,%rsp
  402dbd:	eb 0e                	jmp    402dcd <driver_post+0x6a>
  402dbf:	66 c7 03 4f 4b       	movw   $0x4b4f,(%rbx)
  402dc4:	c6 43 02 00          	movb   $0x0,0x2(%rbx)
  402dc8:	b8 00 00 00 00       	mov    $0x0,%eax
  402dcd:	5b                   	pop    %rbx
  402dce:	c3                   	retq   

0000000000402dcf <check>:
  402dcf:	89 f8                	mov    %edi,%eax
  402dd1:	c1 e8 1c             	shr    $0x1c,%eax
  402dd4:	85 c0                	test   %eax,%eax
  402dd6:	74 1d                	je     402df5 <check+0x26>
  402dd8:	b9 00 00 00 00       	mov    $0x0,%ecx
  402ddd:	eb 0b                	jmp    402dea <check+0x1b>
  402ddf:	89 f8                	mov    %edi,%eax
  402de1:	d3 e8                	shr    %cl,%eax
  402de3:	3c 0a                	cmp    $0xa,%al
  402de5:	74 14                	je     402dfb <check+0x2c>
  402de7:	83 c1 08             	add    $0x8,%ecx
  402dea:	83 f9 1f             	cmp    $0x1f,%ecx
  402ded:	7e f0                	jle    402ddf <check+0x10>
  402def:	b8 01 00 00 00       	mov    $0x1,%eax
  402df4:	c3                   	retq   
  402df5:	b8 00 00 00 00       	mov    $0x0,%eax
  402dfa:	c3                   	retq   
  402dfb:	b8 00 00 00 00       	mov    $0x0,%eax
  402e00:	c3                   	retq   

0000000000402e01 <gencookie>:
  402e01:	53                   	push   %rbx
  402e02:	83 c7 01             	add    $0x1,%edi
  402e05:	e8 d6 df ff ff       	callq  400de0 <srandom@plt>
  402e0a:	e8 f1 e0 ff ff       	callq  400f00 <random@plt>
  402e0f:	89 c3                	mov    %eax,%ebx
  402e11:	89 c7                	mov    %eax,%edi
  402e13:	e8 b7 ff ff ff       	callq  402dcf <check>
  402e18:	85 c0                	test   %eax,%eax
  402e1a:	74 ee                	je     402e0a <gencookie+0x9>
  402e1c:	89 d8                	mov    %ebx,%eax
  402e1e:	5b                   	pop    %rbx
  402e1f:	c3                   	retq   

0000000000402e20 <__libc_csu_init>:
  402e20:	41 57                	push   %r15
  402e22:	41 56                	push   %r14
  402e24:	41 89 ff             	mov    %edi,%r15d
  402e27:	41 55                	push   %r13
  402e29:	41 54                	push   %r12
  402e2b:	4c 8d 25 f6 0f 20 00 	lea    0x200ff6(%rip),%r12        # 603e28 <__CTOR_LIST__>
  402e32:	55                   	push   %rbp
  402e33:	48 8d 2d ee 0f 20 00 	lea    0x200fee(%rip),%rbp        # 603e28 <__CTOR_LIST__>
  402e3a:	53                   	push   %rbx
  402e3b:	49 89 f6             	mov    %rsi,%r14
  402e3e:	49 89 d5             	mov    %rdx,%r13
  402e41:	4c 29 e5             	sub    %r12,%rbp
  402e44:	48 83 ec 08          	sub    $0x8,%rsp
  402e48:	48 c1 fd 03          	sar    $0x3,%rbp
  402e4c:	e8 2f df ff ff       	callq  400d80 <_init>
  402e51:	48 85 ed             	test   %rbp,%rbp
  402e54:	74 20                	je     402e76 <__libc_csu_init+0x56>
  402e56:	31 db                	xor    %ebx,%ebx
  402e58:	0f 1f 84 00 00 00 00 	nopl   0x0(%rax,%rax,1)
  402e5f:	00 
  402e60:	4c 89 ea             	mov    %r13,%rdx
  402e63:	4c 89 f6             	mov    %r14,%rsi
  402e66:	44 89 ff             	mov    %r15d,%edi
  402e69:	41 ff 14 dc          	callq  *(%r12,%rbx,8)
  402e6d:	48 83 c3 01          	add    $0x1,%rbx
  402e71:	48 39 eb             	cmp    %rbp,%rbx
  402e74:	75 ea                	jne    402e60 <__libc_csu_init+0x40>
  402e76:	48 83 c4 08          	add    $0x8,%rsp
  402e7a:	5b                   	pop    %rbx
  402e7b:	5d                   	pop    %rbp
  402e7c:	41 5c                	pop    %r12
  402e7e:	41 5d                	pop    %r13
  402e80:	41 5e                	pop    %r14
  402e82:	41 5f                	pop    %r15
  402e84:	c3                   	retq   
  402e85:	90                   	nop
  402e86:	66 2e 0f 1f 84 00 00 	nopw   %cs:0x0(%rax,%rax,1)
  402e8d:	00 00 00 

0000000000402e90 <__libc_csu_fini>:
  402e90:	f3 c3                	repz retq 
  402e92:	66 2e 0f 1f 84 00 00 	nopw   %cs:0x0(%rax,%rax,1)
  402e99:	00 00 00 
  402e9c:	0f 1f 40 00          	nopl   0x0(%rax)

0000000000402ea0 <__do_global_ctors_aux>:
  402ea0:	48 8b 05 81 0f 20 00 	mov    0x200f81(%rip),%rax        # 603e28 <__CTOR_LIST__>
  402ea7:	48 83 f8 ff          	cmp    $0xffffffffffffffff,%rax
  402eab:	74 28                	je     402ed5 <__do_global_ctors_aux+0x35>
  402ead:	55                   	push   %rbp
  402eae:	48 89 e5             	mov    %rsp,%rbp
  402eb1:	53                   	push   %rbx
  402eb2:	48 8d 1d 6f 0f 20 00 	lea    0x200f6f(%rip),%rbx        # 603e28 <__CTOR_LIST__>
  402eb9:	48 83 ec 08          	sub    $0x8,%rsp
  402ebd:	0f 1f 00             	nopl   (%rax)
  402ec0:	48 83 eb 08          	sub    $0x8,%rbx
  402ec4:	ff d0                	callq  *%rax
  402ec6:	48 8b 03             	mov    (%rbx),%rax
  402ec9:	48 83 f8 ff          	cmp    $0xffffffffffffffff,%rax
  402ecd:	75 f1                	jne    402ec0 <__do_global_ctors_aux+0x20>
  402ecf:	48 83 c4 08          	add    $0x8,%rsp
  402ed3:	5b                   	pop    %rbx
  402ed4:	5d                   	pop    %rbp
  402ed5:	f3 c3                	repz retq 

Desmontagem da seção .fini:

0000000000402ed8 <_fini>:
  402ed8:	48 83 ec 08          	sub    $0x8,%rsp
  402edc:	e8 bf e1 ff ff       	callq  4010a0 <__do_global_dtors_aux>
  402ee1:	48 83 c4 08          	add    $0x8,%rsp
  402ee5:	c3                   	retq   
